   1              		.cpu arm7tdmi
   2              		.fpu softvfp
   3              		.eabi_attribute 20, 1
   4              		.eabi_attribute 21, 1
   5              		.eabi_attribute 23, 3
   6              		.eabi_attribute 24, 1
   7              		.eabi_attribute 25, 1
   8              		.eabi_attribute 26, 1
   9              		.eabi_attribute 30, 6
  10              		.eabi_attribute 18, 4
  11              		.file	"main.c"
  21              	.Ltext0:
  22              		.file 1 "../main.c"
 1192              		.align	2
 1193              		.global	Main
 1195              	Main:
 1196              	.LFB0:
   1:../main.c     **** #include "s3cev40.h"
   2:../main.c     **** #include "common_types.h"
   3:../main.c     **** #include "at24c04.h"
   4:../main.c     **** 
   5:../main.c     **** extern void DelayMs(int ms_time);
   6:../main.c     **** extern void sys_init();
   7:../main.c     **** extern void iic_init();
   8:../main.c     **** extern void D8Led_symbol(int value);
   9:../main.c     **** extern void at24c04_bytewrite( uint16 addr, uint8 data );
  10:../main.c     **** extern void golden_at24c04_bytewrite( uint16 addr, uint8 data );
  11:../main.c     **** extern void at24c04_byteread( uint16 addr, uint8 *data );
  12:../main.c     **** extern void golden_at24c04_byteread( uint16 addr, uint8 *data );
  13:../main.c     **** 
  14:../main.c     **** int val;
  15:../main.c     **** 
  16:../main.c     **** void Main( void )
  17:../main.c     **** {
 1197              		.loc 1 17 0
 1198              		.cfi_startproc
 1199              		@ Function supports interworking.
 1200              		@ args = 0, pretend = 0, frame = 520
 1201              		@ frame_needed = 1, uses_anonymous_args = 0
 1202 0000 0DC0A0E1 		mov	ip, sp
 1203              	.LCFI0:
 1204              		.cfi_def_cfa_register 12
 1205 0004 00D82DE9 		stmfd	sp!, {fp, ip, lr, pc}
 1206 0008 04B04CE2 		sub	fp, ip, #4
 1207              		.cfi_offset 14, -8
 1208              		.cfi_offset 13, -12
 1209              		.cfi_offset 11, -16
 1210              	.LCFI1:
 1211              		.cfi_def_cfa 11, 4
 1212 000c 82DF4DE2 		sub	sp, sp, #520
  18:../main.c     ****     uint8 buffer[AT24C04_DEPTH];
  19:../main.c     ****     uint16 i;
  20:../main.c     ****     
  21:../main.c     ****     sys_init();
 1213              		.loc 1 21 0
 1214 0010 FEFFFFEB 		bl	sys_init
  22:../main.c     ****     golden_iic_init();
 1215              		.loc 1 22 0
 1216 0014 FEFFFFEB 		bl	golden_iic_init
  23:../main.c     ****     D8Led_symbol(8);//8
 1217              		.loc 1 23 0
 1218 0018 0800A0E3 		mov	r0, #8
 1219 001c FEFFFFEB 		bl	D8Led_symbol
  24:../main.c     **** 
  25:../main.c     ****     //Inicializamos la EEPROM
  26:../main.c     ****     for( i=0; i<AT24C04_DEPTH; i++ ){
 1220              		.loc 1 26 0
 1221 0020 0030A0E3 		mov	r3, #0
 1222 0024 BE304BE1 		strh	r3, [fp, #-14]	@ movhi
 1223 0028 0E0000EA 		b	.L2
 1224              	.L3:
  27:../main.c     ****       val = (uint8)i%16;
 1225              		.loc 1 27 0 discriminator 2
 1226 002c BE305BE1 		ldrh	r3, [fp, #-14]	@ movhi
 1227 0030 FF3003E2 		and	r3, r3, #255
 1228 0034 0F2003E2 		and	r2, r3, #15
 1229 0038 08319FE5 		ldr	r3, .L9
 1230 003c 002083E5 		str	r2, [r3, #0]
  28:../main.c     ****       golden_at24c04_bytewrite( i, val );
 1231              		.loc 1 28 0 discriminator 2
 1232 0040 00319FE5 		ldr	r3, .L9
 1233 0044 003093E5 		ldr	r3, [r3, #0]
 1234 0048 FF3003E2 		and	r3, r3, #255
 1235 004c BE205BE1 		ldrh	r2, [fp, #-14]
 1236 0050 0200A0E1 		mov	r0, r2
 1237 0054 0310A0E1 		mov	r1, r3
 1238 0058 FEFFFFEB 		bl	golden_at24c04_bytewrite
  26:../main.c     ****     for( i=0; i<AT24C04_DEPTH; i++ ){
 1239              		.loc 1 26 0 discriminator 2
 1240 005c BE305BE1 		ldrh	r3, [fp, #-14]	@ movhi
 1241 0060 013083E2 		add	r3, r3, #1
 1242 0064 BE304BE1 		strh	r3, [fp, #-14]	@ movhi
 1243              	.L2:
  26:../main.c     ****     for( i=0; i<AT24C04_DEPTH; i++ ){
 1244              		.loc 1 26 0 is_stmt 0 discriminator 1
 1245 0068 BE205BE1 		ldrh	r2, [fp, #-14]
 1246 006c D8309FE5 		ldr	r3, .L9+4
 1247 0070 030052E1 		cmp	r2, r3
 1248 0074 ECFFFF9A 		bls	.L3
  29:../main.c     ****     }
  30:../main.c     **** 
  31:../main.c     ****     for( i=0; i<AT24C04_DEPTH; i++ ){
 1249              		.loc 1 31 0 is_stmt 1
 1250 0078 0030A0E3 		mov	r3, #0
 1251 007c BE304BE1 		strh	r3, [fp, #-14]	@ movhi
 1252 0080 090000EA 		b	.L4
 1253              	.L5:
  32:../main.c     ****       golden_at24c04_byteread( i, &buffer[i] );
 1254              		.loc 1 32 0 discriminator 2
 1255 0084 BE305BE1 		ldrh	r3, [fp, #-14]
 1256 0088 212E4BE2 		sub	r2, fp, #528
 1257 008c 033082E0 		add	r3, r2, r3
 1258 0090 BE205BE1 		ldrh	r2, [fp, #-14]
 1259 0094 0200A0E1 		mov	r0, r2
 1260 0098 0310A0E1 		mov	r1, r3
 1261 009c FEFFFFEB 		bl	golden_at24c04_byteread
  31:../main.c     ****     for( i=0; i<AT24C04_DEPTH; i++ ){
 1262              		.loc 1 31 0 discriminator 2
 1263 00a0 BE305BE1 		ldrh	r3, [fp, #-14]	@ movhi
 1264 00a4 013083E2 		add	r3, r3, #1
 1265 00a8 BE304BE1 		strh	r3, [fp, #-14]	@ movhi
 1266              	.L4:
  31:../main.c     ****     for( i=0; i<AT24C04_DEPTH; i++ ){
 1267              		.loc 1 31 0 is_stmt 0 discriminator 1
 1268 00ac BE205BE1 		ldrh	r2, [fp, #-14]
 1269 00b0 94309FE5 		ldr	r3, .L9+4
 1270 00b4 030052E1 		cmp	r2, r3
 1271 00b8 F1FFFF9A 		bls	.L5
  33:../main.c     ****     }
  34:../main.c     **** 
  35:../main.c     ****     DelayMs(100);
 1272              		.loc 1 35 0 is_stmt 1
 1273 00bc 6400A0E3 		mov	r0, #100
 1274 00c0 FEFFFFEB 		bl	DelayMs
  36:../main.c     **** 
  37:../main.c     ****     for( i=0; i<AT24C04_DEPTH; i++ ){
 1275              		.loc 1 37 0
 1276 00c4 0030A0E3 		mov	r3, #0
 1277 00c8 BE304BE1 		strh	r3, [fp, #-14]	@ movhi
 1278 00cc 180000EA 		b	.L6
 1279              	.L7:
  38:../main.c     ****       golden_at24c04_byteread( i, &buffer[i] );
 1280              		.loc 1 38 0 discriminator 2
 1281 00d0 BE305BE1 		ldrh	r3, [fp, #-14]
 1282 00d4 212E4BE2 		sub	r2, fp, #528
 1283 00d8 033082E0 		add	r3, r2, r3
 1284 00dc BE205BE1 		ldrh	r2, [fp, #-14]
 1285 00e0 0200A0E1 		mov	r0, r2
 1286 00e4 0310A0E1 		mov	r1, r3
 1287 00e8 FEFFFFEB 		bl	golden_at24c04_byteread
  39:../main.c     ****       val = buffer[i] & 0xF;
 1288              		.loc 1 39 0 discriminator 2
 1289 00ec BE205BE1 		ldrh	r2, [fp, #-14]
 1290 00f0 58309FE5 		ldr	r3, .L9+8
 1291 00f4 0C104BE2 		sub	r1, fp, #12
 1292 00f8 022081E0 		add	r2, r1, r2
 1293 00fc 033082E0 		add	r3, r2, r3
 1294 0100 0030D3E5 		ldrb	r3, [r3, #0]	@ zero_extendqisi2
 1295 0104 0F2003E2 		and	r2, r3, #15
 1296 0108 38309FE5 		ldr	r3, .L9
 1297 010c 002083E5 		str	r2, [r3, #0]
  40:../main.c     ****       D8Led_symbol(val);
 1298              		.loc 1 40 0 discriminator 2
 1299 0110 30309FE5 		ldr	r3, .L9
 1300 0114 003093E5 		ldr	r3, [r3, #0]
 1301 0118 0300A0E1 		mov	r0, r3
 1302 011c FEFFFFEB 		bl	D8Led_symbol
  41:../main.c     ****       DelayMs(100);
 1303              		.loc 1 41 0 discriminator 2
 1304 0120 6400A0E3 		mov	r0, #100
 1305 0124 FEFFFFEB 		bl	DelayMs
  37:../main.c     ****     for( i=0; i<AT24C04_DEPTH; i++ ){
 1306              		.loc 1 37 0 discriminator 2
 1307 0128 BE305BE1 		ldrh	r3, [fp, #-14]	@ movhi
 1308 012c 013083E2 		add	r3, r3, #1
 1309 0130 BE304BE1 		strh	r3, [fp, #-14]	@ movhi
 1310              	.L6:
  37:../main.c     ****     for( i=0; i<AT24C04_DEPTH; i++ ){
 1311              		.loc 1 37 0 is_stmt 0 discriminator 1
 1312 0134 BE205BE1 		ldrh	r2, [fp, #-14]
 1313 0138 0C309FE5 		ldr	r3, .L9+4
 1314 013c 030052E1 		cmp	r2, r3
 1315 0140 E2FFFF9A 		bls	.L7
 1316              	.L8:
  42:../main.c     ****     }
  43:../main.c     **** 
  44:../main.c     ****     while( 1 );
 1317              		.loc 1 44 0 is_stmt 1 discriminator 1
 1318 0144 FEFFFFEA 		b	.L8
 1319              	.L10:
 1320              		.align	2
 1321              	.L9:
 1322 0148 00000000 		.word	val
 1323 014c FF010000 		.word	511
 1324 0150 FCFDFFFF 		.word	-516
 1325              		.cfi_endproc
 1326              	.LFE0:
 1328              	.Letext0: