
practica3.elf:     file format elf32-littlearm

Sections:
Idx Name          Size      VMA       LMA       File off  Algn
  0 .text         00000f64  0c100000  0c100000  00008000  2**2
                  CONTENTS, ALLOC, LOAD, READONLY, CODE
  1 .data         0000004c  0c100f64  0c100f64  00008f64  2**2
                  CONTENTS, ALLOC, LOAD, DATA
  2 .bss          00000004  0c100fb0  0c100fb0  00008fb0  2**2
                  ALLOC
  3 .debug_abbrev 000004c5  00000000  00000000  00008fb0  2**0
                  CONTENTS, READONLY, DEBUGGING
  4 .debug_info   00000866  00000000  00000000  00009475  2**0
                  CONTENTS, READONLY, DEBUGGING
  5 .debug_line   000005ae  00000000  00000000  00009cdb  2**0
                  CONTENTS, READONLY, DEBUGGING
  6 .debug_macinfo 0001cbab  00000000  00000000  0000a289  2**0
                  CONTENTS, READONLY, DEBUGGING
  7 .debug_loc    00000420  00000000  00000000  00026e34  2**0
                  CONTENTS, READONLY, DEBUGGING
  8 .debug_pubnames 00000285  00000000  00000000  00027254  2**0
                  CONTENTS, READONLY, DEBUGGING
  9 .debug_pubtypes 000000f2  00000000  00000000  000274d9  2**0
                  CONTENTS, READONLY, DEBUGGING
 10 .debug_aranges 00000100  00000000  00000000  000275d0  2**3
                  CONTENTS, READONLY, DEBUGGING
 11 .debug_str    0000024c  00000000  00000000  000276d0  2**0
                  CONTENTS, READONLY, DEBUGGING
 12 .comment      0000002a  00000000  00000000  0002791c  2**0
                  CONTENTS, READONLY
 13 .ARM.attributes 00000030  00000000  00000000  00027946  2**0
                  CONTENTS, READONLY
 14 .debug_frame  0000035c  00000000  00000000  00027978  2**2
                  CONTENTS, READONLY, DEBUGGING

Disassembly of section .text:

0c100000 <DelayMs>:
static uint32 clk_normal = CLKIN;  // Frecuencia en modo normal (Hz)
static uint32 clk_slow = CLKIN;	   // Frecuencia en modo slow (Hz)
uint32 mclk = CLKIN;			   // Frecuencia actual del reloj (Hz)

void DelayMs(int ms_time)
{
 c100000:	e1a0c00d 	mov	ip, sp
 c100004:	e92dd800 	push	{fp, ip, lr, pc}
 c100008:	e24cb004 	sub	fp, ip, #4
 c10000c:	e24dd010 	sub	sp, sp, #16
 c100010:	e50b0018 	str	r0, [fp, #-24]	; 0xffffffe8
	int i;

	for( i = 0 ; i < 1000*ms_time ; i++ )
 c100014:	e3a03000 	mov	r3, #0
 c100018:	e50b3010 	str	r3, [fp, #-16]
 c10001c:	ea000002 	b	c10002c <DelayMs+0x2c>
 c100020:	e51b3010 	ldr	r3, [fp, #-16]
 c100024:	e2833001 	add	r3, r3, #1
 c100028:	e50b3010 	str	r3, [fp, #-16]
 c10002c:	e51b2018 	ldr	r2, [fp, #-24]	; 0xffffffe8
 c100030:	e1a03002 	mov	r3, r2
 c100034:	e1a03283 	lsl	r3, r3, #5
 c100038:	e0623003 	rsb	r3, r2, r3
 c10003c:	e1a03103 	lsl	r3, r3, #2
 c100040:	e0833002 	add	r3, r3, r2
 c100044:	e1a03183 	lsl	r3, r3, #3
 c100048:	e1a02003 	mov	r2, r3
 c10004c:	e51b3010 	ldr	r3, [fp, #-16]
 c100050:	e1520003 	cmp	r2, r3
 c100054:	cafffff1 	bgt	c100020 <DelayMs+0x20>
		;
}
 c100058:	e24bd00c 	sub	sp, fp, #12
 c10005c:	e89d6800 	ldm	sp, {fp, sp, lr}
 c100060:	e12fff1e 	bx	lr

0c100064 <sys_init>:

void sys_init( void )
{
 c100064:	e1a0c00d 	mov	ip, sp
 c100068:	e92dd800 	push	{fp, ip, lr, pc}
 c10006c:	e24cb004 	sub	fp, ip, #4
	WTCON  = 0;				// deshabilita el watchdog
 c100070:	e59f30e0 	ldr	r3, [pc, #224]	; c100158 <sys_init+0xf4>
 c100074:	e3a02000 	mov	r2, #0
 c100078:	e5832000 	str	r2, [r3]
	INTMSK = ~0;			// enmascara todas las interrupciones
 c10007c:	e59f30d8 	ldr	r3, [pc, #216]	; c10015c <sys_init+0xf8>
 c100080:	e3e02000 	mvn	r2, #0
 c100084:	e5832000 	str	r2, [r3]

	// Configuracion del gestor de reloj
	LOCKTIME   = 0xfff;		// estabilización del PLL = 512 us
 c100088:	e59f30d0 	ldr	r3, [pc, #208]	; c100160 <sys_init+0xfc>
 c10008c:	e59f20d0 	ldr	r2, [pc, #208]	; c100164 <sys_init+0x100>
 c100090:	e5832000 	str	r2, [r3]
	PLLCON     = 0x38021;	// MCLK = 64MHz
 c100094:	e3a03776 	mov	r3, #30932992	; 0x1d80000
 c100098:	e59f20c8 	ldr	r2, [pc, #200]	; c100168 <sys_init+0x104>
 c10009c:	e5832000 	str	r2, [r3]
	clk_normal = 64000000;
 c1000a0:	e59f30c4 	ldr	r3, [pc, #196]	; c10016c <sys_init+0x108>
 c1000a4:	e59f20c4 	ldr	r2, [pc, #196]	; c100170 <sys_init+0x10c>
 c1000a8:	e5832000 	str	r2, [r3]
	CLKSLOW    = 0x8;		// MCLK_SLOW = 500 KHz
 c1000ac:	e59f30c0 	ldr	r3, [pc, #192]	; c100174 <sys_init+0x110>
 c1000b0:	e3a02008 	mov	r2, #8
 c1000b4:	e5832000 	str	r2, [r3]
	clk_slow   = 500000;
 c1000b8:	e59f30b8 	ldr	r3, [pc, #184]	; c100178 <sys_init+0x114>
 c1000bc:	e59f20b8 	ldr	r2, [pc, #184]	; c10017c <sys_init+0x118>
 c1000c0:	e5832000 	str	r2, [r3]
	CLKCON     = (1<<10) | (1<<7); 	// modo NORMAL y todos los controladores desactivados menos el BDMA y GPIO (para poder acceder a todos lo perifericos y a los puertos)
 c1000c4:	e59f30b4 	ldr	r3, [pc, #180]	; c100180 <sys_init+0x11c>
 c1000c8:	e3a02d12 	mov	r2, #1152	; 0x480
 c1000cc:	e5832000 	str	r2, [r3]
	mclk       = clk_normal;
 c1000d0:	e59f3094 	ldr	r3, [pc, #148]	; c10016c <sys_init+0x108>
 c1000d4:	e5932000 	ldr	r2, [r3]
 c1000d8:	e59f30a4 	ldr	r3, [pc, #164]	; c100184 <sys_init+0x120>
 c1000dc:	e5832000 	str	r2, [r3]

	// Configuracion del arbitro de bus
	SBUSCON = 0x8000001b;	// prioridad fija por defecto LCD > ZDMA > BDMA > IRQ
 c1000e0:	e3a03771 	mov	r3, #29622272	; 0x1c40000
 c1000e4:	e3a0216e 	mov	r2, #-2147483621	; 0x8000001b
 c1000e8:	e5832000 	str	r2, [r3]

	// Configuracion de cache
	SYSCFG = 0;				// deshabilitada
 c1000ec:	e3a03507 	mov	r3, #29360128	; 0x1c00000
 c1000f0:	e3a02000 	mov	r2, #0
 c1000f4:	e5832000 	str	r2, [r3]

	// Configuacion del controlador de interrupciones
	I_PMST = 0x1f1b;		// prioridades fijas por defecto
 c1000f8:	e59f3088 	ldr	r3, [pc, #136]	; c100188 <sys_init+0x124>
 c1000fc:	e59f2088 	ldr	r2, [pc, #136]	; c10018c <sys_init+0x128>
 c100100:	e5832000 	str	r2, [r3]
	I_PSLV = 0x1b1b1b1b;
 c100104:	e59f3084 	ldr	r3, [pc, #132]	; c100190 <sys_init+0x12c>
 c100108:	e59f2084 	ldr	r2, [pc, #132]	; c100194 <sys_init+0x130>
 c10010c:	e5832000 	str	r2, [r3]
	INTMOD = 0;				// todas las interrupciones en modo IRQ
 c100110:	e59f3080 	ldr	r3, [pc, #128]	; c100198 <sys_init+0x134>
 c100114:	e3a02000 	mov	r2, #0
 c100118:	e5832000 	str	r2, [r3]
	EXTINTPND = ~0;			// borra las interrupciones externas pendientes por linea EINT7..4
 c10011c:	e59f3078 	ldr	r3, [pc, #120]	; c10019c <sys_init+0x138>
 c100120:	e3e02000 	mvn	r2, #0
 c100124:	e5832000 	str	r2, [r3]
    I_ISPC = ~0;			// borra todas las interrupciones pendientes
 c100128:	e59f3070 	ldr	r3, [pc, #112]	; c1001a0 <sys_init+0x13c>
 c10012c:	e3e02000 	mvn	r2, #0
 c100130:	e5832000 	str	r2, [r3]
	INTCON = 1;				// IRQ vectorizadas, linea IRQ activada, linea FIQ desactivada
 c100134:	e3a0361e 	mov	r3, #31457280	; 0x1e00000
 c100138:	e3a02001 	mov	r2, #1
 c10013c:	e5832000 	str	r2, [r3]

	// Configuracion de puertos
	port_init();
 c100140:	e59f305c 	ldr	r3, [pc, #92]	; c1001a4 <sys_init+0x140>
 c100144:	e1a0e00f 	mov	lr, pc
 c100148:	e12fff13 	bx	r3
}
 c10014c:	e24bd00c 	sub	sp, fp, #12
 c100150:	e89d6800 	ldm	sp, {fp, sp, lr}
 c100154:	e12fff1e 	bx	lr
 c100158:	01d30000 	.word	0x01d30000
 c10015c:	01e0000c 	.word	0x01e0000c
 c100160:	01d8000c 	.word	0x01d8000c
 c100164:	00000fff 	.word	0x00000fff
 c100168:	00038021 	.word	0x00038021
 c10016c:	0c100f64 	.word	0x0c100f64
 c100170:	03d09000 	.word	0x03d09000
 c100174:	01d80008 	.word	0x01d80008
 c100178:	0c100f68 	.word	0x0c100f68
 c10017c:	0007a120 	.word	0x0007a120
 c100180:	01d80004 	.word	0x01d80004
 c100184:	0c100f6c 	.word	0x0c100f6c
 c100188:	01e00014 	.word	0x01e00014
 c10018c:	00001f1b 	.word	0x00001f1b
 c100190:	01e00010 	.word	0x01e00010
 c100194:	1b1b1b1b 	.word	0x1b1b1b1b
 c100198:	01e00008 	.word	0x01e00008
 c10019c:	01d20054 	.word	0x01d20054
 c1001a0:	01e00024 	.word	0x01e00024
 c1001a4:	0c1001a8 	.word	0x0c1001a8

0c1001a8 <port_init>:


inline void port_init( void )
{
 c1001a8:	e1a0c00d 	mov	ip, sp
 c1001ac:	e92dd800 	push	{fp, ip, lr, pc}
 c1001b0:	e24cb004 	sub	fp, ip, #4

	PDATA = ~0;
 c1001b4:	e59f3100 	ldr	r3, [pc, #256]	; c1002bc <port_init+0x114>
 c1001b8:	e3e02000 	mvn	r2, #0
 c1001bc:	e5832000 	str	r2, [r3]
	PCONA = (0x7f<<1);		// PA[7:1] = ADDR[22:16], resto = out
 c1001c0:	e59f30f8 	ldr	r3, [pc, #248]	; c1002c0 <port_init+0x118>
 c1001c4:	e3a020fe 	mov	r2, #254	; 0xfe
 c1001c8:	e5832000 	str	r2, [r3]

	PDATB = ~0;
 c1001cc:	e59f30f0 	ldr	r3, [pc, #240]	; c1002c4 <port_init+0x11c>
 c1001d0:	e3e02000 	mvn	r2, #0
 c1001d4:	e5832000 	str	r2, [r3]
	PCONB = (1<<8) | (1<<6) | (0xf);	// PA[8] = nGCS3, PA[6] = nGCS1, PA[3:0] = (nSRAS, nSCAS, SCLK, SCKE), resto = out
 c1001d8:	e59f30e8 	ldr	r3, [pc, #232]	; c1002c8 <port_init+0x120>
 c1001dc:	e59f20e8 	ldr	r2, [pc, #232]	; c1002cc <port_init+0x124>
 c1001e0:	e5832000 	str	r2, [r3]

	PDATC = ~0;
 c1001e4:	e59f30e4 	ldr	r3, [pc, #228]	; c1002d0 <port_init+0x128>
 c1001e8:	e3e02000 	mvn	r2, #0
 c1001ec:	e5832000 	str	r2, [r3]
	PCONC = 0x55555555;		// PC[x] = out
 c1001f0:	e59f30dc 	ldr	r3, [pc, #220]	; c1002d4 <port_init+0x12c>
 c1001f4:	e59f20dc 	ldr	r2, [pc, #220]	; c1002d8 <port_init+0x130>
 c1001f8:	e5832000 	str	r2, [r3]
	PUPC  = ~0;		 		// Pull-up disable
 c1001fc:	e59f30d8 	ldr	r3, [pc, #216]	; c1002dc <port_init+0x134>
 c100200:	e3e02000 	mvn	r2, #0
 c100204:	e5832000 	str	r2, [r3]

	PDATD = ~0;
 c100208:	e59f30d0 	ldr	r3, [pc, #208]	; c1002e0 <port_init+0x138>
 c10020c:	e3e02000 	mvn	r2, #0
 c100210:	e5832000 	str	r2, [r3]
	PCOND = 0x5555;			// PD[x] = out
 c100214:	e59f30c8 	ldr	r3, [pc, #200]	; c1002e4 <port_init+0x13c>
 c100218:	e59f20c8 	ldr	r2, [pc, #200]	; c1002e8 <port_init+0x140>
 c10021c:	e5832000 	str	r2, [r3]
	PUPD  = ~0;				// Pull-up disable
 c100220:	e59f30c4 	ldr	r3, [pc, #196]	; c1002ec <port_init+0x144>
 c100224:	e3e02000 	mvn	r2, #0
 c100228:	e5832000 	str	r2, [r3]

	PDATE = ~0;
 c10022c:	e59f30bc 	ldr	r3, [pc, #188]	; c1002f0 <port_init+0x148>
 c100230:	e3e02000 	mvn	r2, #0
 c100234:	e5832000 	str	r2, [r3]
	PCONE = 0x15555; 		// PE[x] = out
 c100238:	e59f30b4 	ldr	r3, [pc, #180]	; c1002f4 <port_init+0x14c>
 c10023c:	e59f20b4 	ldr	r2, [pc, #180]	; c1002f8 <port_init+0x150>
 c100240:	e5832000 	str	r2, [r3]
	PUPE  = ~0;		 		// Pull-up disable
 c100244:	e59f30b0 	ldr	r3, [pc, #176]	; c1002fc <port_init+0x154>
 c100248:	e3e02000 	mvn	r2, #0
 c10024c:	e5832000 	str	r2, [r3]

	PDATF = ~0;
 c100250:	e59f30a8 	ldr	r3, [pc, #168]	; c100300 <port_init+0x158>
 c100254:	e3e02000 	mvn	r2, #0
 c100258:	e5832000 	str	r2, [r3]
	PCONF = 0x002555; 		// PF[8] = in, PF[7] = in, resto = out
 c10025c:	e59f30a0 	ldr	r3, [pc, #160]	; c100304 <port_init+0x15c>
 c100260:	e59f20a0 	ldr	r2, [pc, #160]	; c100308 <port_init+0x160>
 c100264:	e5832000 	str	r2, [r3]
	PUPF  = ~0;			 	// Pull-up disable
 c100268:	e59f309c 	ldr	r3, [pc, #156]	; c10030c <port_init+0x164>
 c10026c:	e3e02000 	mvn	r2, #0
 c100270:	e5832000 	str	r2, [r3]

	PDATG = ~0;
 c100274:	e59f3094 	ldr	r3, [pc, #148]	; c100310 <port_init+0x168>
 c100278:	e3e02000 	mvn	r2, #0
 c10027c:	e5832000 	str	r2, [r3]
	PCONG = 0x5555;			// PG[x] = out
 c100280:	e59f308c 	ldr	r3, [pc, #140]	; c100314 <port_init+0x16c>
 c100284:	e59f205c 	ldr	r2, [pc, #92]	; c1002e8 <port_init+0x140>
 c100288:	e5832000 	str	r2, [r3]
	PUPG  = ~0;		 		// Pull-up disable
 c10028c:	e59f3084 	ldr	r3, [pc, #132]	; c100318 <port_init+0x170>
 c100290:	e3e02000 	mvn	r2, #0
 c100294:	e5832000 	str	r2, [r3]

	SPUCR = 0x7;			// DATA[15:0] Pull-up disable
 c100298:	e59f307c 	ldr	r3, [pc, #124]	; c10031c <port_init+0x174>
 c10029c:	e3a02007 	mov	r2, #7
 c1002a0:	e5832000 	str	r2, [r3]

	EXTINT = 0x22222222;	// Falling edge triggered
 c1002a4:	e59f3074 	ldr	r3, [pc, #116]	; c100320 <port_init+0x178>
 c1002a8:	e59f2074 	ldr	r2, [pc, #116]	; c100324 <port_init+0x17c>
 c1002ac:	e5832000 	str	r2, [r3]
}
 c1002b0:	e24bd00c 	sub	sp, fp, #12
 c1002b4:	e89d6800 	ldm	sp, {fp, sp, lr}
 c1002b8:	e12fff1e 	bx	lr
 c1002bc:	01d20004 	.word	0x01d20004
 c1002c0:	01d20000 	.word	0x01d20000
 c1002c4:	01d2000c 	.word	0x01d2000c
 c1002c8:	01d20008 	.word	0x01d20008
 c1002cc:	0000014f 	.word	0x0000014f
 c1002d0:	01d20014 	.word	0x01d20014
 c1002d4:	01d20010 	.word	0x01d20010
 c1002d8:	55555555 	.word	0x55555555
 c1002dc:	01d20018 	.word	0x01d20018
 c1002e0:	01d20020 	.word	0x01d20020
 c1002e4:	01d2001c 	.word	0x01d2001c
 c1002e8:	00005555 	.word	0x00005555
 c1002ec:	01d20024 	.word	0x01d20024
 c1002f0:	01d2002c 	.word	0x01d2002c
 c1002f4:	01d20028 	.word	0x01d20028
 c1002f8:	00015555 	.word	0x00015555
 c1002fc:	01d20030 	.word	0x01d20030
 c100300:	01d20038 	.word	0x01d20038
 c100304:	01d20034 	.word	0x01d20034
 c100308:	00002555 	.word	0x00002555
 c10030c:	01d2003c 	.word	0x01d2003c
 c100310:	01d20044 	.word	0x01d20044
 c100314:	01d20040 	.word	0x01d20040
 c100318:	01d20048 	.word	0x01d20048
 c10031c:	01d2004c 	.word	0x01d2004c
 c100320:	01d20050 	.word	0x01d20050
 c100324:	22222222 	.word	0x22222222

0c100328 <D8Led_init>:
/*--- declaracion de funciones ---*/
void D8Led_init(void);
void D8Led_symbol(int value);
/*--- codigo de las funciones ---*/
void D8Led_init(void)
{
 c100328:	e1a0c00d 	mov	ip, sp
 c10032c:	e92dd800 	push	{fp, ip, lr, pc}
 c100330:	e24cb004 	sub	fp, ip, #4
/* Estado inicial del display con todos los segmentos iluminados
(buscar en los ficheros de cabecera la direccion implicada--->44blib.h) */ 
	LED8ADDR = 0; 
 c100334:	e3a03785 	mov	r3, #34865152	; 0x2140000
 c100338:	e3a02000 	mov	r2, #0
 c10033c:	e5c32000 	strb	r2, [r3]
}
 c100340:	e24bd00c 	sub	sp, fp, #12
 c100344:	e89d6800 	ldm	sp, {fp, sp, lr}
 c100348:	e12fff1e 	bx	lr

0c10034c <D8Led_symbol>:
void D8Led_symbol(int value)
{
 c10034c:	e1a0c00d 	mov	ip, sp
 c100350:	e92dd800 	push	{fp, ip, lr, pc}
 c100354:	e24cb004 	sub	fp, ip, #4
 c100358:	e24dd008 	sub	sp, sp, #8
 c10035c:	e50b0010 	str	r0, [fp, #-16]
// muestra Symbol[value] en el display
	LED8ADDR=Symbol[value];
 c100360:	e3a03785 	mov	r3, #34865152	; 0x2140000
 c100364:	e59f2018 	ldr	r2, [pc, #24]	; c100384 <D8Led_symbol+0x38>
 c100368:	e51b1010 	ldr	r1, [fp, #-16]
 c10036c:	e7922101 	ldr	r2, [r2, r1, lsl #2]
 c100370:	e20220ff 	and	r2, r2, #255	; 0xff
 c100374:	e5c32000 	strb	r2, [r3]
}
 c100378:	e24bd00c 	sub	sp, fp, #12
 c10037c:	e89d6800 	ldm	sp, {fp, sp, lr}
 c100380:	e12fff1e 	bx	lr
 c100384:	0c100f70 	.word	0x0c100f70

0c100388 <at24c04_bytewrite>:
#define AT24C04_WIDTH (8)
#define AT24C04_DEPTH (512)


void at24c04_bytewrite( uint16 addr, uint8 data )
{
 c100388:	e1a0c00d 	mov	ip, sp
 c10038c:	e92dd800 	push	{fp, ip, lr, pc}
 c100390:	e24cb004 	sub	fp, ip, #4
 c100394:	e24dd010 	sub	sp, sp, #16
 c100398:	e1a02000 	mov	r2, r0
 c10039c:	e1a03001 	mov	r3, r1
 c1003a0:	e14b21b6 	strh	r2, [fp, #-22]	; 0xffffffea
 c1003a4:	e54b3017 	strb	r3, [fp, #-23]	; 0xffffffe9
	uint8 page;
	
	page = (addr & 0x100) >> 8;	// Extrae el número de página 
 c1003a8:	e15b31b6 	ldrh	r3, [fp, #-22]	; 0xffffffea
 c1003ac:	e2033c01 	and	r3, r3, #256	; 0x100
 c1003b0:	e1a03443 	asr	r3, r3, #8
 c1003b4:	e54b300d 	strb	r3, [fp, #-13]

	/*Añadir el prefijo golden_ para usar la versión de test. Ej. golden_iic_putByte_start*/
	iic_putByte_start( (AT24C04_ADDRESS << 2) | (page << 1) | AT24C04_WRITE );
 c1003b8:	e55b300d 	ldrb	r3, [fp, #-13]
 c1003bc:	e1a03083 	lsl	r3, r3, #1
 c1003c0:	e20330ff 	and	r3, r3, #255	; 0xff
 c1003c4:	e1e03003 	mvn	r3, r3
 c1003c8:	e203305f 	and	r3, r3, #95	; 0x5f
 c1003cc:	e1e03003 	mvn	r3, r3
 c1003d0:	e20330ff 	and	r3, r3, #255	; 0xff
 c1003d4:	e20330ff 	and	r3, r3, #255	; 0xff
 c1003d8:	e1a00003 	mov	r0, r3
 c1003dc:	eb000075 	bl	c1005b8 <iic_putByte_start>
	iic_putByte( addr & 0xFF );
 c1003e0:	e15b31b6 	ldrh	r3, [fp, #-22]	; 0xffffffea
 c1003e4:	e20330ff 	and	r3, r3, #255	; 0xff
 c1003e8:	e1a00003 	mov	r0, r3
 c1003ec:	eb000090 	bl	c100634 <iic_putByte>
	iic_putByte_stop( data );
 c1003f0:	e55b3017 	ldrb	r3, [fp, #-23]	; 0xffffffe9
 c1003f4:	e1a00003 	mov	r0, r3
 c1003f8:	eb0000a6 	bl	c100698 <iic_putByte_stop>
}
 c1003fc:	e24bd00c 	sub	sp, fp, #12
 c100400:	e89d6800 	ldm	sp, {fp, sp, lr}
 c100404:	e12fff1e 	bx	lr

0c100408 <at24c04_byteread>:



void at24c04_byteread( uint16 addr, uint8 *data )
{
 c100408:	e1a0c00d 	mov	ip, sp
 c10040c:	e92dd800 	push	{fp, ip, lr, pc}
 c100410:	e24cb004 	sub	fp, ip, #4
 c100414:	e24dd010 	sub	sp, sp, #16
 c100418:	e1a03000 	mov	r3, r0
 c10041c:	e50b101c 	str	r1, [fp, #-28]	; 0xffffffe4
 c100420:	e14b31b6 	strh	r3, [fp, #-22]	; 0xffffffea
	uint8 page;
	
	page = (addr & 0x100) >> 8;	// Extrae el número de página 
 c100424:	e15b31b6 	ldrh	r3, [fp, #-22]	; 0xffffffea
 c100428:	e2033c01 	and	r3, r3, #256	; 0x100
 c10042c:	e1a03443 	asr	r3, r3, #8
 c100430:	e54b300d 	strb	r3, [fp, #-13]
	
	iic_putByte_start( (AT24C04_ADDRESS << 2) | (page << 1) | AT24C04_WRITE );  // Lleva el contador de dirección de la EEPROM a la dirección indicada
 c100434:	e55b300d 	ldrb	r3, [fp, #-13]
 c100438:	e1a03083 	lsl	r3, r3, #1
 c10043c:	e20330ff 	and	r3, r3, #255	; 0xff
 c100440:	e1e03003 	mvn	r3, r3
 c100444:	e203305f 	and	r3, r3, #95	; 0x5f
 c100448:	e1e03003 	mvn	r3, r3
 c10044c:	e20330ff 	and	r3, r3, #255	; 0xff
 c100450:	e20330ff 	and	r3, r3, #255	; 0xff
 c100454:	e1a00003 	mov	r0, r3
 c100458:	eb000056 	bl	c1005b8 <iic_putByte_start>
	iic_putByte( addr & 0xFF );
 c10045c:	e15b31b6 	ldrh	r3, [fp, #-22]	; 0xffffffea
 c100460:	e20330ff 	and	r3, r3, #255	; 0xff
 c100464:	e1a00003 	mov	r0, r3
 c100468:	eb000071 	bl	c100634 <iic_putByte>
	iic_getByte_start( (AT24C04_ADDRESS << 2) | (page << 1) | AT24C04_READ );
 c10046c:	e55b300d 	ldrb	r3, [fp, #-13]
 c100470:	e1a03083 	lsl	r3, r3, #1
 c100474:	e20330ff 	and	r3, r3, #255	; 0xff
 c100478:	e1e03003 	mvn	r3, r3
 c10047c:	e203305e 	and	r3, r3, #94	; 0x5e
 c100480:	e1e03003 	mvn	r3, r3
 c100484:	e20330ff 	and	r3, r3, #255	; 0xff
 c100488:	e20330ff 	and	r3, r3, #255	; 0xff
 c10048c:	e1a00003 	mov	r0, r3
 c100490:	eb0000a6 	bl	c100730 <iic_getByte_start>
	*data = iic_getByte_stop( NO_RxACK ); 								// En una EEPROM, no debe generarse ACK tras el último dato recibido
 c100494:	e3a00000 	mov	r0, #0
 c100498:	eb0000df 	bl	c10081c <iic_getByte_stop>
 c10049c:	e1a03000 	mov	r3, r0
 c1004a0:	e1a02003 	mov	r2, r3
 c1004a4:	e51b301c 	ldr	r3, [fp, #-28]	; 0xffffffe4
 c1004a8:	e5c32000 	strb	r2, [r3]
}
 c1004ac:	e24bd00c 	sub	sp, fp, #12
 c1004b0:	e89d6800 	ldm	sp, {fp, sp, lr}
 c1004b4:	e12fff1e 	bx	lr

0c1004b8 <iic_init>:
extern uint32 mclk;			   // Frecuencia actual del reloj (Hz)

extern void DelayMs(int ms_time);

void iic_init( void )
{
 c1004b8:	e1a0c00d 	mov	ip, sp
 c1004bc:	e92dd800 	push	{fp, ip, lr, pc}
 c1004c0:	e24cb004 	sub	fp, ip, #4
	// Enable IIC & GPIO & BDMA blocks (si no se activa BDMA, el controlador IIC no es accesible)
	rCLKCON |= 1<<13 | 1<<10 | 1<<7;
 c1004c4:	e59f30cc 	ldr	r3, [pc, #204]	; c100598 <iic_init+0xe0>
 c1004c8:	e59f20c8 	ldr	r2, [pc, #200]	; c100598 <iic_init+0xe0>
 c1004cc:	e5922000 	ldr	r2, [r2]
 c1004d0:	e3822d92 	orr	r2, r2, #9344	; 0x2480
 c1004d4:	e5832000 	str	r2, [r3]
	
	// PF[1] = IICSDA, PF[0] = IICSCL
	rPCONF &= ~(0x1<<0 | 0x1<<2);
 c1004d8:	e59f30bc 	ldr	r3, [pc, #188]	; c10059c <iic_init+0xe4>
 c1004dc:	e59f20b8 	ldr	r2, [pc, #184]	; c10059c <iic_init+0xe4>
 c1004e0:	e5922000 	ldr	r2, [r2]
 c1004e4:	e3c22005 	bic	r2, r2, #5
 c1004e8:	e5832000 	str	r2, [r3]
	rPCONF |= 0x1<<1 | 0x1<<3 ;
 c1004ec:	e59f30a8 	ldr	r3, [pc, #168]	; c10059c <iic_init+0xe4>
 c1004f0:	e59f20a4 	ldr	r2, [pc, #164]	; c10059c <iic_init+0xe4>
 c1004f4:	e5922000 	ldr	r2, [r2]
 c1004f8:	e382200a 	orr	r2, r2, #10
 c1004fc:	e5832000 	str	r2, [r3]
	
	// Pull-up enable
	rPUPF &= ~(0x1<<0 | 0x1<<1);
 c100500:	e59f3098 	ldr	r3, [pc, #152]	; c1005a0 <iic_init+0xe8>
 c100504:	e59f2094 	ldr	r2, [pc, #148]	; c1005a0 <iic_init+0xe8>
 c100508:	e5922000 	ldr	r2, [r2]
 c10050c:	e3c22003 	bic	r2, r2, #3
 c100510:	e5832000 	str	r2, [r3]
	
    //Configurar la dirección del slave
	rIICADD = S3C44B0X_SLAVE_ADDRESS;
 c100514:	e59f3088 	ldr	r3, [pc, #136]	; c1005a4 <iic_init+0xec>
 c100518:	e3a02008 	mov	r2, #8
 c10051c:	e5832000 	str	r2, [r3]

    //Generación ACK habilitada, interrupciones habilitadas
	rIICCON |= (0x1<<7); //habiltar ACK
 c100520:	e59f3080 	ldr	r3, [pc, #128]	; c1005a8 <iic_init+0xf0>
 c100524:	e59f207c 	ldr	r2, [pc, #124]	; c1005a8 <iic_init+0xf0>
 c100528:	e5922000 	ldr	r2, [r2]
 c10052c:	e3822080 	orr	r2, r2, #128	; 0x80
 c100530:	e5832000 	str	r2, [r3]
	rIICCON |= (0x1<<5); //habilita interrupciones
 c100534:	e59f306c 	ldr	r3, [pc, #108]	; c1005a8 <iic_init+0xf0>
 c100538:	e59f2068 	ldr	r2, [pc, #104]	; c1005a8 <iic_init+0xf0>
 c10053c:	e5922000 	ldr	r2, [r2]
 c100540:	e3822020 	orr	r2, r2, #32
 c100544:	e5832000 	str	r2, [r3]
	
    rIICCON = rIICCON | ((mclk / 4000000 - 1) & 0xf); 	//Valor de preescalado, PREESCALER = mclk/16/250000 -1
 c100548:	e59f3058 	ldr	r3, [pc, #88]	; c1005a8 <iic_init+0xf0>
 c10054c:	e59f2054 	ldr	r2, [pc, #84]	; c1005a8 <iic_init+0xf0>
 c100550:	e5921000 	ldr	r1, [r2]
 c100554:	e59f2050 	ldr	r2, [pc, #80]	; c1005ac <iic_init+0xf4>
 c100558:	e5920000 	ldr	r0, [r2]
 c10055c:	e59f204c 	ldr	r2, [pc, #76]	; c1005b0 <iic_init+0xf8>
 c100560:	e082c290 	umull	ip, r2, r0, r2
 c100564:	e1a02a22 	lsr	r2, r2, #20
 c100568:	e2422001 	sub	r2, r2, #1
 c10056c:	e202200f 	and	r2, r2, #15
 c100570:	e1812002 	orr	r2, r1, r2
 c100574:	e5832000 	str	r2, [r3]
	
    // Activa Tx/Rx
    rIICSTAT |= 0x1<<4;
 c100578:	e59f3034 	ldr	r3, [pc, #52]	; c1005b4 <iic_init+0xfc>
 c10057c:	e59f2030 	ldr	r2, [pc, #48]	; c1005b4 <iic_init+0xfc>
 c100580:	e5922000 	ldr	r2, [r2]
 c100584:	e3822010 	orr	r2, r2, #16
 c100588:	e5832000 	str	r2, [r3]

}
 c10058c:	e24bd00c 	sub	sp, fp, #12
 c100590:	e89d6800 	ldm	sp, {fp, sp, lr}
 c100594:	e12fff1e 	bx	lr
 c100598:	01d80004 	.word	0x01d80004
 c10059c:	01d20034 	.word	0x01d20034
 c1005a0:	01d2003c 	.word	0x01d2003c
 c1005a4:	01d60008 	.word	0x01d60008
 c1005a8:	01d60000 	.word	0x01d60000
 c1005ac:	0c100f6c 	.word	0x0c100f6c
 c1005b0:	431bde83 	.word	0x431bde83
 c1005b4:	01d60004 	.word	0x01d60004

0c1005b8 <iic_putByte_start>:

void iic_putByte_start( uint8 byte )
{
 c1005b8:	e1a0c00d 	mov	ip, sp
 c1005bc:	e92dd800 	push	{fp, ip, lr, pc}
 c1005c0:	e24cb004 	sub	fp, ip, #4
 c1005c4:	e24dd008 	sub	sp, sp, #8
 c1005c8:	e1a03000 	mov	r3, r0
 c1005cc:	e54b300d 	strb	r3, [fp, #-13]
	// Escribe el dato
	rIICDS = byte;
 c1005d0:	e59f3050 	ldr	r3, [pc, #80]	; c100628 <iic_putByte_start+0x70>
 c1005d4:	e55b200d 	ldrb	r2, [fp, #-13]
 c1005d8:	e5832000 	str	r2, [r3]
	// Máster Tx, start condition, Tx/Rx habilitada
	rIICSTAT |= (0x1<<4 | 0x1<<5 | 0x1<<6 | 0x1<<7 );
 c1005dc:	e59f3048 	ldr	r3, [pc, #72]	; c10062c <iic_putByte_start+0x74>
 c1005e0:	e59f2044 	ldr	r2, [pc, #68]	; c10062c <iic_putByte_start+0x74>
 c1005e4:	e5922000 	ldr	r2, [r2]
 c1005e8:	e38220f0 	orr	r2, r2, #240	; 0xf0
 c1005ec:	e5832000 	str	r2, [r3]
	// Comienza la transmisión (borrando pending bit del IICCON)
	rIICCON &= ~(0x1<<4);
 c1005f0:	e59f3038 	ldr	r3, [pc, #56]	; c100630 <iic_putByte_start+0x78>
 c1005f4:	e59f2034 	ldr	r2, [pc, #52]	; c100630 <iic_putByte_start+0x78>
 c1005f8:	e5922000 	ldr	r2, [r2]
 c1005fc:	e3c22010 	bic	r2, r2, #16
 c100600:	e5832000 	str	r2, [r3]

    // Espera la recepción de ACK  
	while ((rIICCON & 0x1<<4 ) == 0){}
 c100604:	e1a00000 	nop			; (mov r0, r0)
 c100608:	e59f3020 	ldr	r3, [pc, #32]	; c100630 <iic_putByte_start+0x78>
 c10060c:	e5933000 	ldr	r3, [r3]
 c100610:	e2033010 	and	r3, r3, #16
 c100614:	e3530000 	cmp	r3, #0
 c100618:	0afffffa 	beq	c100608 <iic_putByte_start+0x50>
}
 c10061c:	e24bd00c 	sub	sp, fp, #12
 c100620:	e89d6800 	ldm	sp, {fp, sp, lr}
 c100624:	e12fff1e 	bx	lr
 c100628:	01d6000c 	.word	0x01d6000c
 c10062c:	01d60004 	.word	0x01d60004
 c100630:	01d60000 	.word	0x01d60000

0c100634 <iic_putByte>:

void iic_putByte( uint8 byte )
{
 c100634:	e1a0c00d 	mov	ip, sp
 c100638:	e92dd800 	push	{fp, ip, lr, pc}
 c10063c:	e24cb004 	sub	fp, ip, #4
 c100640:	e24dd008 	sub	sp, sp, #8
 c100644:	e1a03000 	mov	r3, r0
 c100648:	e54b300d 	strb	r3, [fp, #-13]
    // Escribe el dato
	rIICDS = byte;
 c10064c:	e59f303c 	ldr	r3, [pc, #60]	; c100690 <iic_putByte+0x5c>
 c100650:	e55b200d 	ldrb	r2, [fp, #-13]
 c100654:	e5832000 	str	r2, [r3]
	// Comienza la transmisión del dato (borrando pending bit del IICCON)
	rIICCON &= ~(0x1<<4);
 c100658:	e59f3034 	ldr	r3, [pc, #52]	; c100694 <iic_putByte+0x60>
 c10065c:	e59f2030 	ldr	r2, [pc, #48]	; c100694 <iic_putByte+0x60>
 c100660:	e5922000 	ldr	r2, [r2]
 c100664:	e3c22010 	bic	r2, r2, #16
 c100668:	e5832000 	str	r2, [r3]

    // Espera la recepción de ACK  
	while ((rIICCON & 0x1<<4 ) == 0){}
 c10066c:	e1a00000 	nop			; (mov r0, r0)
 c100670:	e59f301c 	ldr	r3, [pc, #28]	; c100694 <iic_putByte+0x60>
 c100674:	e5933000 	ldr	r3, [r3]
 c100678:	e2033010 	and	r3, r3, #16
 c10067c:	e3530000 	cmp	r3, #0
 c100680:	0afffffa 	beq	c100670 <iic_putByte+0x3c>
};
 c100684:	e24bd00c 	sub	sp, fp, #12
 c100688:	e89d6800 	ldm	sp, {fp, sp, lr}
 c10068c:	e12fff1e 	bx	lr
 c100690:	01d6000c 	.word	0x01d6000c
 c100694:	01d60000 	.word	0x01d60000

0c100698 <iic_putByte_stop>:

void iic_putByte_stop( uint8 byte )
{
 c100698:	e1a0c00d 	mov	ip, sp
 c10069c:	e92dd800 	push	{fp, ip, lr, pc}
 c1006a0:	e24cb004 	sub	fp, ip, #4
 c1006a4:	e24dd008 	sub	sp, sp, #8
 c1006a8:	e1a03000 	mov	r3, r0
 c1006ac:	e54b300d 	strb	r3, [fp, #-13]
    // Escribe el dato
	rIICDS = byte;
 c1006b0:	e59f306c 	ldr	r3, [pc, #108]	; c100724 <iic_putByte_stop+0x8c>
 c1006b4:	e55b200d 	ldrb	r2, [fp, #-13]
 c1006b8:	e5832000 	str	r2, [r3]
	// Comienza la trasmisión del dato (borrando pending bit del IICCON)
	rIICCON &= ~(0x1<<4);
 c1006bc:	e59f3064 	ldr	r3, [pc, #100]	; c100728 <iic_putByte_stop+0x90>
 c1006c0:	e59f2060 	ldr	r2, [pc, #96]	; c100728 <iic_putByte_stop+0x90>
 c1006c4:	e5922000 	ldr	r2, [r2]
 c1006c8:	e3c22010 	bic	r2, r2, #16
 c1006cc:	e5832000 	str	r2, [r3]
    // Espera la recepción de ACK  
	while ((rIICCON & 0x1<<4 ) == 0){}
 c1006d0:	e1a00000 	nop			; (mov r0, r0)
 c1006d4:	e59f304c 	ldr	r3, [pc, #76]	; c100728 <iic_putByte_stop+0x90>
 c1006d8:	e5933000 	ldr	r3, [r3]
 c1006dc:	e2033010 	and	r3, r3, #16
 c1006e0:	e3530000 	cmp	r3, #0
 c1006e4:	0afffffa 	beq	c1006d4 <iic_putByte_stop+0x3c>
    
    // Máster Tx, stop condition, Tx/Rx habilitada
	rIICSTAT &= ~(0x1<<5);
 c1006e8:	e59f303c 	ldr	r3, [pc, #60]	; c10072c <iic_putByte_stop+0x94>
 c1006ec:	e59f2038 	ldr	r2, [pc, #56]	; c10072c <iic_putByte_stop+0x94>
 c1006f0:	e5922000 	ldr	r2, [r2]
 c1006f4:	e3c22020 	bic	r2, r2, #32
 c1006f8:	e5832000 	str	r2, [r3]
    // Comienza la trasmisión de STOP (borrando pending bit del IICCON)
	rIICCON &= ~(0x1<<4);
 c1006fc:	e59f3024 	ldr	r3, [pc, #36]	; c100728 <iic_putByte_stop+0x90>
 c100700:	e59f2020 	ldr	r2, [pc, #32]	; c100728 <iic_putByte_stop+0x90>
 c100704:	e5922000 	ldr	r2, [r2]
 c100708:	e3c22010 	bic	r2, r2, #16
 c10070c:	e5832000 	str	r2, [r3]
    // Espera a que la stop condition tenga efecto (5 ms para la at24c04)
	DelayMs(5);
 c100710:	e3a00005 	mov	r0, #5
 c100714:	ebfffe39 	bl	c100000 <DelayMs>
}
 c100718:	e24bd00c 	sub	sp, fp, #12
 c10071c:	e89d6800 	ldm	sp, {fp, sp, lr}
 c100720:	e12fff1e 	bx	lr
 c100724:	01d6000c 	.word	0x01d6000c
 c100728:	01d60000 	.word	0x01d60000
 c10072c:	01d60004 	.word	0x01d60004

0c100730 <iic_getByte_start>:

void iic_getByte_start( uint8 byte )
{
 c100730:	e1a0c00d 	mov	ip, sp
 c100734:	e92dd800 	push	{fp, ip, lr, pc}
 c100738:	e24cb004 	sub	fp, ip, #4
 c10073c:	e24dd008 	sub	sp, sp, #8
 c100740:	e1a03000 	mov	r3, r0
 c100744:	e54b300d 	strb	r3, [fp, #-13]
	// Escribe el dato
	rIICDS = byte;
 c100748:	e59f3064 	ldr	r3, [pc, #100]	; c1007b4 <iic_getByte_start+0x84>
 c10074c:	e55b200d 	ldrb	r2, [fp, #-13]
 c100750:	e5832000 	str	r2, [r3]
    // Máster Rx, start condition, Tx/Rx habilitada
	rIICSTAT |= (0x1<<4 | 0x1<<5 | 0x1<<7 );
 c100754:	e59f305c 	ldr	r3, [pc, #92]	; c1007b8 <iic_getByte_start+0x88>
 c100758:	e59f2058 	ldr	r2, [pc, #88]	; c1007b8 <iic_getByte_start+0x88>
 c10075c:	e5922000 	ldr	r2, [r2]
 c100760:	e38220b0 	orr	r2, r2, #176	; 0xb0
 c100764:	e5832000 	str	r2, [r3]
	rIICSTAT &= ~(0x1<<6);
 c100768:	e59f3048 	ldr	r3, [pc, #72]	; c1007b8 <iic_getByte_start+0x88>
 c10076c:	e59f2044 	ldr	r2, [pc, #68]	; c1007b8 <iic_getByte_start+0x88>
 c100770:	e5922000 	ldr	r2, [r2]
 c100774:	e3c22040 	bic	r2, r2, #64	; 0x40
 c100778:	e5832000 	str	r2, [r3]
    // Comienza la transmisión (borrando pending bit del IICCON)
	rIICCON &= ~(0x1<<4);
 c10077c:	e59f3038 	ldr	r3, [pc, #56]	; c1007bc <iic_getByte_start+0x8c>
 c100780:	e59f2034 	ldr	r2, [pc, #52]	; c1007bc <iic_getByte_start+0x8c>
 c100784:	e5922000 	ldr	r2, [r2]
 c100788:	e3c22010 	bic	r2, r2, #16
 c10078c:	e5832000 	str	r2, [r3]
    // Espera la rececpión de ACK
	while ((rIICCON & 0x1<<4 ) == 0){}
 c100790:	e1a00000 	nop			; (mov r0, r0)
 c100794:	e59f3020 	ldr	r3, [pc, #32]	; c1007bc <iic_getByte_start+0x8c>
 c100798:	e5933000 	ldr	r3, [r3]
 c10079c:	e2033010 	and	r3, r3, #16
 c1007a0:	e3530000 	cmp	r3, #0
 c1007a4:	0afffffa 	beq	c100794 <iic_getByte_start+0x64>
}
 c1007a8:	e24bd00c 	sub	sp, fp, #12
 c1007ac:	e89d6800 	ldm	sp, {fp, sp, lr}
 c1007b0:	e12fff1e 	bx	lr
 c1007b4:	01d6000c 	.word	0x01d6000c
 c1007b8:	01d60004 	.word	0x01d60004
 c1007bc:	01d60000 	.word	0x01d60000

0c1007c0 <iic_getByte>:

uint8 iic_getByte( void )
{
 c1007c0:	e1a0c00d 	mov	ip, sp
 c1007c4:	e92dd800 	push	{fp, ip, lr, pc}
 c1007c8:	e24cb004 	sub	fp, ip, #4
    // Reanuda la recepción (borrando pending bit del IICCON)
	rIICCON &= ~(0x1<<4);
 c1007cc:	e59f3040 	ldr	r3, [pc, #64]	; c100814 <iic_getByte+0x54>
 c1007d0:	e59f203c 	ldr	r2, [pc, #60]	; c100814 <iic_getByte+0x54>
 c1007d4:	e5922000 	ldr	r2, [r2]
 c1007d8:	e3c22010 	bic	r2, r2, #16
 c1007dc:	e5832000 	str	r2, [r3]
	// Espera la recepción del dato
	while ((rIICCON & 0x1<<4 ) == 0){}
 c1007e0:	e1a00000 	nop			; (mov r0, r0)
 c1007e4:	e59f3028 	ldr	r3, [pc, #40]	; c100814 <iic_getByte+0x54>
 c1007e8:	e5933000 	ldr	r3, [r3]
 c1007ec:	e2033010 	and	r3, r3, #16
 c1007f0:	e3530000 	cmp	r3, #0
 c1007f4:	0afffffa 	beq	c1007e4 <iic_getByte+0x24>

    return rIICDS;// Lee el dato
 c1007f8:	e59f3018 	ldr	r3, [pc, #24]	; c100818 <iic_getByte+0x58>
 c1007fc:	e5933000 	ldr	r3, [r3]
 c100800:	e20330ff 	and	r3, r3, #255	; 0xff
}
 c100804:	e1a00003 	mov	r0, r3
 c100808:	e24bd00c 	sub	sp, fp, #12
 c10080c:	e89d6800 	ldm	sp, {fp, sp, lr}
 c100810:	e12fff1e 	bx	lr
 c100814:	01d60000 	.word	0x01d60000
 c100818:	01d6000c 	.word	0x01d6000c

0c10081c <iic_getByte_stop>:

uint8 iic_getByte_stop( int8 ack )
{
 c10081c:	e1a0c00d 	mov	ip, sp
 c100820:	e92dd800 	push	{fp, ip, lr, pc}
 c100824:	e24cb004 	sub	fp, ip, #4
 c100828:	e24dd010 	sub	sp, sp, #16
 c10082c:	e1a03000 	mov	r3, r0
 c100830:	e54b3015 	strb	r3, [fp, #-21]	; 0xffffffeb
	uint8 byte;

    rIICCON = (rIICCON & ~(1 << 7)) | (ack << 7); // Habilita/deshabilita la generación de ACK
 c100834:	e59f30d0 	ldr	r3, [pc, #208]	; c10090c <iic_getByte_stop+0xf0>
 c100838:	e59f20cc 	ldr	r2, [pc, #204]	; c10090c <iic_getByte_stop+0xf0>
 c10083c:	e5922000 	ldr	r2, [r2]
 c100840:	e3c21080 	bic	r1, r2, #128	; 0x80
 c100844:	e15b21d5 	ldrsb	r2, [fp, #-21]	; 0xffffffeb
 c100848:	e1a02382 	lsl	r2, r2, #7
 c10084c:	e1812002 	orr	r2, r1, r2
 c100850:	e5832000 	str	r2, [r3]

    // Reanuda la recepción (borrando pending bit del IICCON)
    rIICCON &= ~(0x1<<4);
 c100854:	e59f30b0 	ldr	r3, [pc, #176]	; c10090c <iic_getByte_stop+0xf0>
 c100858:	e59f20ac 	ldr	r2, [pc, #172]	; c10090c <iic_getByte_stop+0xf0>
 c10085c:	e5922000 	ldr	r2, [r2]
 c100860:	e3c22010 	bic	r2, r2, #16
 c100864:	e5832000 	str	r2, [r3]
	// Espera la recepción del dato
    while ((rIICCON & 0x1<<4 ) == 0){}
 c100868:	e1a00000 	nop			; (mov r0, r0)
 c10086c:	e59f3098 	ldr	r3, [pc, #152]	; c10090c <iic_getByte_stop+0xf0>
 c100870:	e5933000 	ldr	r3, [r3]
 c100874:	e2033010 	and	r3, r3, #16
 c100878:	e3530000 	cmp	r3, #0
 c10087c:	0afffffa 	beq	c10086c <iic_getByte_stop+0x50>

    byte = rIICDS;	// Lee el dato
 c100880:	e59f3088 	ldr	r3, [pc, #136]	; c100910 <iic_getByte_stop+0xf4>
 c100884:	e5933000 	ldr	r3, [r3]
 c100888:	e54b300d 	strb	r3, [fp, #-13]

   	// Máster Rx, stop condition, Tx/Rx habilitada
    rIICSTAT |= (0x1<<4 | 0x1<<5 | 0x1<<7 );
 c10088c:	e59f3080 	ldr	r3, [pc, #128]	; c100914 <iic_getByte_stop+0xf8>
 c100890:	e59f207c 	ldr	r2, [pc, #124]	; c100914 <iic_getByte_stop+0xf8>
 c100894:	e5922000 	ldr	r2, [r2]
 c100898:	e38220b0 	orr	r2, r2, #176	; 0xb0
 c10089c:	e5832000 	str	r2, [r3]
    rIICSTAT &= ~(0x1<<6);
 c1008a0:	e59f306c 	ldr	r3, [pc, #108]	; c100914 <iic_getByte_stop+0xf8>
 c1008a4:	e59f2068 	ldr	r2, [pc, #104]	; c100914 <iic_getByte_stop+0xf8>
 c1008a8:	e5922000 	ldr	r2, [r2]
 c1008ac:	e3c22040 	bic	r2, r2, #64	; 0x40
 c1008b0:	e5832000 	str	r2, [r3]
    rIICSTAT &= ~(0x1<<5);
 c1008b4:	e59f3058 	ldr	r3, [pc, #88]	; c100914 <iic_getByte_stop+0xf8>
 c1008b8:	e59f2054 	ldr	r2, [pc, #84]	; c100914 <iic_getByte_stop+0xf8>
 c1008bc:	e5922000 	ldr	r2, [r2]
 c1008c0:	e3c22020 	bic	r2, r2, #32
 c1008c4:	e5832000 	str	r2, [r3]

   	// Comienza la trasmisión de STOP (borrando pending bit del IICCON)
    rIICCON &= ~(0x1<<4);
 c1008c8:	e59f303c 	ldr	r3, [pc, #60]	; c10090c <iic_getByte_stop+0xf0>
 c1008cc:	e59f2038 	ldr	r2, [pc, #56]	; c10090c <iic_getByte_stop+0xf0>
 c1008d0:	e5922000 	ldr	r2, [r2]
 c1008d4:	e3c22010 	bic	r2, r2, #16
 c1008d8:	e5832000 	str	r2, [r3]
   	// Espera a que la stop condition tenga efecto (5 ms para la at24c04)
    DelayMs(5);
 c1008dc:	e3a00005 	mov	r0, #5
 c1008e0:	ebfffdc6 	bl	c100000 <DelayMs>

	rIICCON |= (1<<7); // Habilita la generación de ACK
 c1008e4:	e59f3020 	ldr	r3, [pc, #32]	; c10090c <iic_getByte_stop+0xf0>
 c1008e8:	e59f201c 	ldr	r2, [pc, #28]	; c10090c <iic_getByte_stop+0xf0>
 c1008ec:	e5922000 	ldr	r2, [r2]
 c1008f0:	e3822080 	orr	r2, r2, #128	; 0x80
 c1008f4:	e5832000 	str	r2, [r3]
   	return byte;
 c1008f8:	e55b300d 	ldrb	r3, [fp, #-13]
}
 c1008fc:	e1a00003 	mov	r0, r3
 c100900:	e24bd00c 	sub	sp, fp, #12
 c100904:	e89d6800 	ldm	sp, {fp, sp, lr}
 c100908:	e12fff1e 	bx	lr
 c10090c:	01d60000 	.word	0x01d60000
 c100910:	01d6000c 	.word	0x01d6000c
 c100914:	01d60004 	.word	0x01d60004

0c100918 <start>:
	.global start
    .extern Main
    .equ STACK, 0x0C7FF000

start: 
    LDR SP,=STACK
 c100918:	e59fd00c 	ldr	sp, [pc, #12]	; c10092c <End+0x4>
    MOV FP,#0
 c10091c:	e3a0b000 	mov	fp, #0
    
    MOV LR,PC
 c100920:	e1a0e00f 	mov	lr, pc
    LDR PC,=Main
 c100924:	e59ff004 	ldr	pc, [pc, #4]	; c100930 <End+0x8>

0c100928 <End>:

End:
    B End
 c100928:	eafffffe 	b	c100928 <End>
 c10092c:	0c7ff000 	.word	0x0c7ff000
 c100930:	0c100934 	.word	0x0c100934

0c100934 <Main>:
extern void golden_at24c04_byteread( uint16 addr, uint8 *data );

int val;

void Main( void )
{
 c100934:	e1a0c00d 	mov	ip, sp
 c100938:	e92dd800 	push	{fp, ip, lr, pc}
 c10093c:	e24cb004 	sub	fp, ip, #4
 c100940:	e24ddf82 	sub	sp, sp, #520	; 0x208
    uint8 buffer[AT24C04_DEPTH];
    uint16 i;
    
    sys_init();
 c100944:	ebfffdc6 	bl	c100064 <sys_init>
    golden_iic_init();
 c100948:	eb000098 	bl	c100bb0 <golden_iic_init>
    D8Led_symbol(8);//8
 c10094c:	e3a00008 	mov	r0, #8
 c100950:	ebfffe7d 	bl	c10034c <D8Led_symbol>

    //Inicializamos la EEPROM
    for( i=0; i<AT24C04_DEPTH; i++ ){
 c100954:	e3a03000 	mov	r3, #0
 c100958:	e14b30be 	strh	r3, [fp, #-14]
 c10095c:	ea00000e 	b	c10099c <Main+0x68>
      val = (uint8)i%16;
 c100960:	e15b30be 	ldrh	r3, [fp, #-14]
 c100964:	e20330ff 	and	r3, r3, #255	; 0xff
 c100968:	e203200f 	and	r2, r3, #15
 c10096c:	e59f3108 	ldr	r3, [pc, #264]	; c100a7c <Main+0x148>
 c100970:	e5832000 	str	r2, [r3]
      golden_at24c04_bytewrite( i, val );
 c100974:	e59f3100 	ldr	r3, [pc, #256]	; c100a7c <Main+0x148>
 c100978:	e5933000 	ldr	r3, [r3]
 c10097c:	e20330ff 	and	r3, r3, #255	; 0xff
 c100980:	e15b20be 	ldrh	r2, [fp, #-14]
 c100984:	e1a00002 	mov	r0, r2
 c100988:	e1a01003 	mov	r1, r3
 c10098c:	eb00003d 	bl	c100a88 <golden_at24c04_bytewrite>
    sys_init();
    golden_iic_init();
    D8Led_symbol(8);//8

    //Inicializamos la EEPROM
    for( i=0; i<AT24C04_DEPTH; i++ ){
 c100990:	e15b30be 	ldrh	r3, [fp, #-14]
 c100994:	e2833001 	add	r3, r3, #1
 c100998:	e14b30be 	strh	r3, [fp, #-14]
 c10099c:	e15b20be 	ldrh	r2, [fp, #-14]
 c1009a0:	e59f30d8 	ldr	r3, [pc, #216]	; c100a80 <Main+0x14c>
 c1009a4:	e1520003 	cmp	r2, r3
 c1009a8:	9affffec 	bls	c100960 <Main+0x2c>
      val = (uint8)i%16;
      golden_at24c04_bytewrite( i, val );
    }

    for( i=0; i<AT24C04_DEPTH; i++ ){
 c1009ac:	e3a03000 	mov	r3, #0
 c1009b0:	e14b30be 	strh	r3, [fp, #-14]
 c1009b4:	ea000009 	b	c1009e0 <Main+0xac>
      golden_at24c04_byteread( i, &buffer[i] );
 c1009b8:	e15b30be 	ldrh	r3, [fp, #-14]
 c1009bc:	e24b2e21 	sub	r2, fp, #528	; 0x210
 c1009c0:	e0823003 	add	r3, r2, r3
 c1009c4:	e15b20be 	ldrh	r2, [fp, #-14]
 c1009c8:	e1a00002 	mov	r0, r2
 c1009cc:	e1a01003 	mov	r1, r3
 c1009d0:	eb00004b 	bl	c100b04 <golden_at24c04_byteread>
    for( i=0; i<AT24C04_DEPTH; i++ ){
      val = (uint8)i%16;
      golden_at24c04_bytewrite( i, val );
    }

    for( i=0; i<AT24C04_DEPTH; i++ ){
 c1009d4:	e15b30be 	ldrh	r3, [fp, #-14]
 c1009d8:	e2833001 	add	r3, r3, #1
 c1009dc:	e14b30be 	strh	r3, [fp, #-14]
 c1009e0:	e15b20be 	ldrh	r2, [fp, #-14]
 c1009e4:	e59f3094 	ldr	r3, [pc, #148]	; c100a80 <Main+0x14c>
 c1009e8:	e1520003 	cmp	r2, r3
 c1009ec:	9afffff1 	bls	c1009b8 <Main+0x84>
      golden_at24c04_byteread( i, &buffer[i] );
    }

    DelayMs(100);
 c1009f0:	e3a00064 	mov	r0, #100	; 0x64
 c1009f4:	ebfffd81 	bl	c100000 <DelayMs>

    for( i=0; i<AT24C04_DEPTH; i++ ){
 c1009f8:	e3a03000 	mov	r3, #0
 c1009fc:	e14b30be 	strh	r3, [fp, #-14]
 c100a00:	ea000018 	b	c100a68 <Main+0x134>
      golden_at24c04_byteread( i, &buffer[i] );
 c100a04:	e15b30be 	ldrh	r3, [fp, #-14]
 c100a08:	e24b2e21 	sub	r2, fp, #528	; 0x210
 c100a0c:	e0823003 	add	r3, r2, r3
 c100a10:	e15b20be 	ldrh	r2, [fp, #-14]
 c100a14:	e1a00002 	mov	r0, r2
 c100a18:	e1a01003 	mov	r1, r3
 c100a1c:	eb000038 	bl	c100b04 <golden_at24c04_byteread>
      val = buffer[i] & 0xF;
 c100a20:	e15b20be 	ldrh	r2, [fp, #-14]
 c100a24:	e59f3058 	ldr	r3, [pc, #88]	; c100a84 <Main+0x150>
 c100a28:	e24b100c 	sub	r1, fp, #12
 c100a2c:	e0812002 	add	r2, r1, r2
 c100a30:	e0823003 	add	r3, r2, r3
 c100a34:	e5d33000 	ldrb	r3, [r3]
 c100a38:	e203200f 	and	r2, r3, #15
 c100a3c:	e59f3038 	ldr	r3, [pc, #56]	; c100a7c <Main+0x148>
 c100a40:	e5832000 	str	r2, [r3]
      D8Led_symbol(val);
 c100a44:	e59f3030 	ldr	r3, [pc, #48]	; c100a7c <Main+0x148>
 c100a48:	e5933000 	ldr	r3, [r3]
 c100a4c:	e1a00003 	mov	r0, r3
 c100a50:	ebfffe3d 	bl	c10034c <D8Led_symbol>
      DelayMs(100);
 c100a54:	e3a00064 	mov	r0, #100	; 0x64
 c100a58:	ebfffd68 	bl	c100000 <DelayMs>
      golden_at24c04_byteread( i, &buffer[i] );
    }

    DelayMs(100);

    for( i=0; i<AT24C04_DEPTH; i++ ){
 c100a5c:	e15b30be 	ldrh	r3, [fp, #-14]
 c100a60:	e2833001 	add	r3, r3, #1
 c100a64:	e14b30be 	strh	r3, [fp, #-14]
 c100a68:	e15b20be 	ldrh	r2, [fp, #-14]
 c100a6c:	e59f300c 	ldr	r3, [pc, #12]	; c100a80 <Main+0x14c>
 c100a70:	e1520003 	cmp	r2, r3
 c100a74:	9affffe2 	bls	c100a04 <Main+0xd0>
      val = buffer[i] & 0xF;
      D8Led_symbol(val);
      DelayMs(100);
    }

    while( 1 );
 c100a78:	eafffffe 	b	c100a78 <Main+0x144>
 c100a7c:	0c100fb0 	.word	0x0c100fb0
 c100a80:	000001ff 	.word	0x000001ff
 c100a84:	fffffdfc 	.word	0xfffffdfc

0c100a88 <golden_at24c04_bytewrite>:
 c100a88:	e92d4800 	push	{fp, lr}
 c100a8c:	e28db004 	add	fp, sp, #4
 c100a90:	e24dd010 	sub	sp, sp, #16
 c100a94:	e1a02000 	mov	r2, r0
 c100a98:	e1a03001 	mov	r3, r1
 c100a9c:	e14b20be 	strh	r2, [fp, #-14]
 c100aa0:	e54b300f 	strb	r3, [fp, #-15]
 c100aa4:	e15b30be 	ldrh	r3, [fp, #-14]
 c100aa8:	e2033c01 	and	r3, r3, #256	; 0x100
 c100aac:	e1a03443 	asr	r3, r3, #8
 c100ab0:	e54b3005 	strb	r3, [fp, #-5]
 c100ab4:	e55b3005 	ldrb	r3, [fp, #-5]
 c100ab8:	e1a03083 	lsl	r3, r3, #1
 c100abc:	e20330ff 	and	r3, r3, #255	; 0xff
 c100ac0:	e1e03003 	mvn	r3, r3
 c100ac4:	e203305f 	and	r3, r3, #95	; 0x5f
 c100ac8:	e1e03003 	mvn	r3, r3
 c100acc:	e20330ff 	and	r3, r3, #255	; 0xff
 c100ad0:	e20330ff 	and	r3, r3, #255	; 0xff
 c100ad4:	e1a00003 	mov	r0, r3
 c100ad8:	eb000066 	bl	c100c78 <golden_iic_putByte_start>
 c100adc:	e15b30be 	ldrh	r3, [fp, #-14]
 c100ae0:	e20330ff 	and	r3, r3, #255	; 0xff
 c100ae4:	e1a00003 	mov	r0, r3
 c100ae8:	eb00007e 	bl	c100ce8 <golden_iic_putByte>
 c100aec:	e55b300f 	ldrb	r3, [fp, #-15]
 c100af0:	e1a00003 	mov	r0, r3
 c100af4:	eb000093 	bl	c100d48 <golden_iic_putByte_stop>
 c100af8:	e24bd004 	sub	sp, fp, #4
 c100afc:	e8bd4800 	pop	{fp, lr}
 c100b00:	e12fff1e 	bx	lr

0c100b04 <golden_at24c04_byteread>:
 c100b04:	e92d4800 	push	{fp, lr}
 c100b08:	e28db004 	add	fp, sp, #4
 c100b0c:	e24dd010 	sub	sp, sp, #16
 c100b10:	e1a03000 	mov	r3, r0
 c100b14:	e50b1014 	str	r1, [fp, #-20]	; 0xffffffec
 c100b18:	e14b30be 	strh	r3, [fp, #-14]
 c100b1c:	e15b30be 	ldrh	r3, [fp, #-14]
 c100b20:	e2033c01 	and	r3, r3, #256	; 0x100
 c100b24:	e1a03443 	asr	r3, r3, #8
 c100b28:	e54b3005 	strb	r3, [fp, #-5]
 c100b2c:	e55b3005 	ldrb	r3, [fp, #-5]
 c100b30:	e1a03083 	lsl	r3, r3, #1
 c100b34:	e20330ff 	and	r3, r3, #255	; 0xff
 c100b38:	e1e03003 	mvn	r3, r3
 c100b3c:	e203305f 	and	r3, r3, #95	; 0x5f
 c100b40:	e1e03003 	mvn	r3, r3
 c100b44:	e20330ff 	and	r3, r3, #255	; 0xff
 c100b48:	e20330ff 	and	r3, r3, #255	; 0xff
 c100b4c:	e1a00003 	mov	r0, r3
 c100b50:	eb000048 	bl	c100c78 <golden_iic_putByte_start>
 c100b54:	e15b30be 	ldrh	r3, [fp, #-14]
 c100b58:	e20330ff 	and	r3, r3, #255	; 0xff
 c100b5c:	e1a00003 	mov	r0, r3
 c100b60:	eb000060 	bl	c100ce8 <golden_iic_putByte>
 c100b64:	e55b3005 	ldrb	r3, [fp, #-5]
 c100b68:	e1a03083 	lsl	r3, r3, #1
 c100b6c:	e20330ff 	and	r3, r3, #255	; 0xff
 c100b70:	e1e03003 	mvn	r3, r3
 c100b74:	e203305e 	and	r3, r3, #94	; 0x5e
 c100b78:	e1e03003 	mvn	r3, r3
 c100b7c:	e20330ff 	and	r3, r3, #255	; 0xff
 c100b80:	e20330ff 	and	r3, r3, #255	; 0xff
 c100b84:	e1a00003 	mov	r0, r3
 c100b88:	eb000091 	bl	c100dd4 <golden_iic_getByte_start>
 c100b8c:	e3a00000 	mov	r0, #0
 c100b90:	eb0000c1 	bl	c100e9c <golden_iic_getByte_stop>
 c100b94:	e1a03000 	mov	r3, r0
 c100b98:	e1a02003 	mov	r2, r3
 c100b9c:	e51b3014 	ldr	r3, [fp, #-20]	; 0xffffffec
 c100ba0:	e5c32000 	strb	r2, [r3]
 c100ba4:	e24bd004 	sub	sp, fp, #4
 c100ba8:	e8bd4800 	pop	{fp, lr}
 c100bac:	e12fff1e 	bx	lr

0c100bb0 <golden_iic_init>:
 c100bb0:	e52db004 	push	{fp}		; (str fp, [sp, #-4]!)
 c100bb4:	e28db000 	add	fp, sp, #0
 c100bb8:	e59f3098 	ldr	r3, [pc, #152]	; c100c58 <golden_iic_init+0xa8>
 c100bbc:	e59f2094 	ldr	r2, [pc, #148]	; c100c58 <golden_iic_init+0xa8>
 c100bc0:	e5922000 	ldr	r2, [r2]
 c100bc4:	e3822d92 	orr	r2, r2, #9344	; 0x2480
 c100bc8:	e5832000 	str	r2, [r3]
 c100bcc:	e59f3088 	ldr	r3, [pc, #136]	; c100c5c <golden_iic_init+0xac>
 c100bd0:	e59f2084 	ldr	r2, [pc, #132]	; c100c5c <golden_iic_init+0xac>
 c100bd4:	e5922000 	ldr	r2, [r2]
 c100bd8:	e3c2200f 	bic	r2, r2, #15
 c100bdc:	e382200a 	orr	r2, r2, #10
 c100be0:	e5832000 	str	r2, [r3]
 c100be4:	e59f3074 	ldr	r3, [pc, #116]	; c100c60 <golden_iic_init+0xb0>
 c100be8:	e59f2070 	ldr	r2, [pc, #112]	; c100c60 <golden_iic_init+0xb0>
 c100bec:	e5922000 	ldr	r2, [r2]
 c100bf0:	e3c22003 	bic	r2, r2, #3
 c100bf4:	e5832000 	str	r2, [r3]
 c100bf8:	e59f3064 	ldr	r3, [pc, #100]	; c100c64 <golden_iic_init+0xb4>
 c100bfc:	e3a02010 	mov	r2, #16
 c100c00:	e5832000 	str	r2, [r3]
 c100c04:	e59f305c 	ldr	r3, [pc, #92]	; c100c68 <golden_iic_init+0xb8>
 c100c08:	e3a020a0 	mov	r2, #160	; 0xa0
 c100c0c:	e5832000 	str	r2, [r3]
 c100c10:	e59f3050 	ldr	r3, [pc, #80]	; c100c68 <golden_iic_init+0xb8>
 c100c14:	e59f204c 	ldr	r2, [pc, #76]	; c100c68 <golden_iic_init+0xb8>
 c100c18:	e5921000 	ldr	r1, [r2]
 c100c1c:	e59f2048 	ldr	r2, [pc, #72]	; c100c6c <golden_iic_init+0xbc>
 c100c20:	e5920000 	ldr	r0, [r2]
 c100c24:	e59f2044 	ldr	r2, [pc, #68]	; c100c70 <golden_iic_init+0xc0>
 c100c28:	e082c290 	umull	ip, r2, r0, r2
 c100c2c:	e1a02a22 	lsr	r2, r2, #20
 c100c30:	e2422001 	sub	r2, r2, #1
 c100c34:	e202200f 	and	r2, r2, #15
 c100c38:	e1812002 	orr	r2, r1, r2
 c100c3c:	e5832000 	str	r2, [r3]
 c100c40:	e59f302c 	ldr	r3, [pc, #44]	; c100c74 <golden_iic_init+0xc4>
 c100c44:	e3a02010 	mov	r2, #16
 c100c48:	e5832000 	str	r2, [r3]
 c100c4c:	e28bd000 	add	sp, fp, #0
 c100c50:	e49db004 	pop	{fp}		; (ldr fp, [sp], #4)
 c100c54:	e12fff1e 	bx	lr
 c100c58:	01d80004 	.word	0x01d80004
 c100c5c:	01d20034 	.word	0x01d20034
 c100c60:	01d2003c 	.word	0x01d2003c
 c100c64:	01d60008 	.word	0x01d60008
 c100c68:	01d60000 	.word	0x01d60000
 c100c6c:	0c100f6c 	.word	0x0c100f6c
 c100c70:	431bde83 	.word	0x431bde83
 c100c74:	01d60004 	.word	0x01d60004

0c100c78 <golden_iic_putByte_start>:
 c100c78:	e52db004 	push	{fp}		; (str fp, [sp, #-4]!)
 c100c7c:	e28db000 	add	fp, sp, #0
 c100c80:	e24dd00c 	sub	sp, sp, #12
 c100c84:	e1a03000 	mov	r3, r0
 c100c88:	e54b3005 	strb	r3, [fp, #-5]
 c100c8c:	e59f3048 	ldr	r3, [pc, #72]	; c100cdc <golden_iic_putByte_start+0x64>
 c100c90:	e55b2005 	ldrb	r2, [fp, #-5]
 c100c94:	e5832000 	str	r2, [r3]
 c100c98:	e59f3040 	ldr	r3, [pc, #64]	; c100ce0 <golden_iic_putByte_start+0x68>
 c100c9c:	e3a020f0 	mov	r2, #240	; 0xf0
 c100ca0:	e5832000 	str	r2, [r3]
 c100ca4:	e59f3038 	ldr	r3, [pc, #56]	; c100ce4 <golden_iic_putByte_start+0x6c>
 c100ca8:	e59f2034 	ldr	r2, [pc, #52]	; c100ce4 <golden_iic_putByte_start+0x6c>
 c100cac:	e5922000 	ldr	r2, [r2]
 c100cb0:	e3c22010 	bic	r2, r2, #16
 c100cb4:	e5832000 	str	r2, [r3]
 c100cb8:	e1a00000 	nop			; (mov r0, r0)
 c100cbc:	e59f3020 	ldr	r3, [pc, #32]	; c100ce4 <golden_iic_putByte_start+0x6c>
 c100cc0:	e5933000 	ldr	r3, [r3]
 c100cc4:	e2033010 	and	r3, r3, #16
 c100cc8:	e3530000 	cmp	r3, #0
 c100ccc:	0afffffa 	beq	c100cbc <golden_iic_putByte_start+0x44>
 c100cd0:	e28bd000 	add	sp, fp, #0
 c100cd4:	e49db004 	pop	{fp}		; (ldr fp, [sp], #4)
 c100cd8:	e12fff1e 	bx	lr
 c100cdc:	01d6000c 	.word	0x01d6000c
 c100ce0:	01d60004 	.word	0x01d60004
 c100ce4:	01d60000 	.word	0x01d60000

0c100ce8 <golden_iic_putByte>:
 c100ce8:	e52db004 	push	{fp}		; (str fp, [sp, #-4]!)
 c100cec:	e28db000 	add	fp, sp, #0
 c100cf0:	e24dd00c 	sub	sp, sp, #12
 c100cf4:	e1a03000 	mov	r3, r0
 c100cf8:	e54b3005 	strb	r3, [fp, #-5]
 c100cfc:	e59f303c 	ldr	r3, [pc, #60]	; c100d40 <golden_iic_putByte+0x58>
 c100d00:	e55b2005 	ldrb	r2, [fp, #-5]
 c100d04:	e5832000 	str	r2, [r3]
 c100d08:	e59f3034 	ldr	r3, [pc, #52]	; c100d44 <golden_iic_putByte+0x5c>
 c100d0c:	e59f2030 	ldr	r2, [pc, #48]	; c100d44 <golden_iic_putByte+0x5c>
 c100d10:	e5922000 	ldr	r2, [r2]
 c100d14:	e3c22010 	bic	r2, r2, #16
 c100d18:	e5832000 	str	r2, [r3]
 c100d1c:	e1a00000 	nop			; (mov r0, r0)
 c100d20:	e59f301c 	ldr	r3, [pc, #28]	; c100d44 <golden_iic_putByte+0x5c>
 c100d24:	e5933000 	ldr	r3, [r3]
 c100d28:	e2033010 	and	r3, r3, #16
 c100d2c:	e3530000 	cmp	r3, #0
 c100d30:	0afffffa 	beq	c100d20 <golden_iic_putByte+0x38>
 c100d34:	e28bd000 	add	sp, fp, #0
 c100d38:	e49db004 	pop	{fp}		; (ldr fp, [sp], #4)
 c100d3c:	e12fff1e 	bx	lr
 c100d40:	01d6000c 	.word	0x01d6000c
 c100d44:	01d60000 	.word	0x01d60000

0c100d48 <golden_iic_putByte_stop>:
 c100d48:	e92d4800 	push	{fp, lr}
 c100d4c:	e28db004 	add	fp, sp, #4
 c100d50:	e24dd008 	sub	sp, sp, #8
 c100d54:	e1a03000 	mov	r3, r0
 c100d58:	e54b3005 	strb	r3, [fp, #-5]
 c100d5c:	e59f3064 	ldr	r3, [pc, #100]	; c100dc8 <golden_iic_putByte_stop+0x80>
 c100d60:	e55b2005 	ldrb	r2, [fp, #-5]
 c100d64:	e5832000 	str	r2, [r3]
 c100d68:	e59f305c 	ldr	r3, [pc, #92]	; c100dcc <golden_iic_putByte_stop+0x84>
 c100d6c:	e59f2058 	ldr	r2, [pc, #88]	; c100dcc <golden_iic_putByte_stop+0x84>
 c100d70:	e5922000 	ldr	r2, [r2]
 c100d74:	e3c22010 	bic	r2, r2, #16
 c100d78:	e5832000 	str	r2, [r3]
 c100d7c:	e1a00000 	nop			; (mov r0, r0)
 c100d80:	e59f3044 	ldr	r3, [pc, #68]	; c100dcc <golden_iic_putByte_stop+0x84>
 c100d84:	e5933000 	ldr	r3, [r3]
 c100d88:	e2033010 	and	r3, r3, #16
 c100d8c:	e3530000 	cmp	r3, #0
 c100d90:	0afffffa 	beq	c100d80 <golden_iic_putByte_stop+0x38>
 c100d94:	e59f3034 	ldr	r3, [pc, #52]	; c100dd0 <golden_iic_putByte_stop+0x88>
 c100d98:	e3a020d0 	mov	r2, #208	; 0xd0
 c100d9c:	e5832000 	str	r2, [r3]
 c100da0:	e59f3024 	ldr	r3, [pc, #36]	; c100dcc <golden_iic_putByte_stop+0x84>
 c100da4:	e59f2020 	ldr	r2, [pc, #32]	; c100dcc <golden_iic_putByte_stop+0x84>
 c100da8:	e5922000 	ldr	r2, [r2]
 c100dac:	e3c22010 	bic	r2, r2, #16
 c100db0:	e5832000 	str	r2, [r3]
 c100db4:	e3a00005 	mov	r0, #5
 c100db8:	ebfffc90 	bl	c100000 <DelayMs>
 c100dbc:	e24bd004 	sub	sp, fp, #4
 c100dc0:	e8bd4800 	pop	{fp, lr}
 c100dc4:	e12fff1e 	bx	lr
 c100dc8:	01d6000c 	.word	0x01d6000c
 c100dcc:	01d60000 	.word	0x01d60000
 c100dd0:	01d60004 	.word	0x01d60004

0c100dd4 <golden_iic_getByte_start>:
 c100dd4:	e52db004 	push	{fp}		; (str fp, [sp, #-4]!)
 c100dd8:	e28db000 	add	fp, sp, #0
 c100ddc:	e24dd00c 	sub	sp, sp, #12
 c100de0:	e1a03000 	mov	r3, r0
 c100de4:	e54b3005 	strb	r3, [fp, #-5]
 c100de8:	e59f3048 	ldr	r3, [pc, #72]	; c100e38 <golden_iic_getByte_start+0x64>
 c100dec:	e55b2005 	ldrb	r2, [fp, #-5]
 c100df0:	e5832000 	str	r2, [r3]
 c100df4:	e59f3040 	ldr	r3, [pc, #64]	; c100e3c <golden_iic_getByte_start+0x68>
 c100df8:	e3a020b0 	mov	r2, #176	; 0xb0
 c100dfc:	e5832000 	str	r2, [r3]
 c100e00:	e59f3038 	ldr	r3, [pc, #56]	; c100e40 <golden_iic_getByte_start+0x6c>
 c100e04:	e59f2034 	ldr	r2, [pc, #52]	; c100e40 <golden_iic_getByte_start+0x6c>
 c100e08:	e5922000 	ldr	r2, [r2]
 c100e0c:	e3c22010 	bic	r2, r2, #16
 c100e10:	e5832000 	str	r2, [r3]
 c100e14:	e1a00000 	nop			; (mov r0, r0)
 c100e18:	e59f3020 	ldr	r3, [pc, #32]	; c100e40 <golden_iic_getByte_start+0x6c>
 c100e1c:	e5933000 	ldr	r3, [r3]
 c100e20:	e2033010 	and	r3, r3, #16
 c100e24:	e3530000 	cmp	r3, #0
 c100e28:	0afffffa 	beq	c100e18 <golden_iic_getByte_start+0x44>
 c100e2c:	e28bd000 	add	sp, fp, #0
 c100e30:	e49db004 	pop	{fp}		; (ldr fp, [sp], #4)
 c100e34:	e12fff1e 	bx	lr
 c100e38:	01d6000c 	.word	0x01d6000c
 c100e3c:	01d60004 	.word	0x01d60004
 c100e40:	01d60000 	.word	0x01d60000

0c100e44 <golden_iic_getByte>:
 c100e44:	e52db004 	push	{fp}		; (str fp, [sp, #-4]!)
 c100e48:	e28db000 	add	fp, sp, #0
 c100e4c:	e59f3040 	ldr	r3, [pc, #64]	; c100e94 <golden_iic_getByte+0x50>
 c100e50:	e59f203c 	ldr	r2, [pc, #60]	; c100e94 <golden_iic_getByte+0x50>
 c100e54:	e5922000 	ldr	r2, [r2]
 c100e58:	e3c22010 	bic	r2, r2, #16
 c100e5c:	e5832000 	str	r2, [r3]
 c100e60:	e1a00000 	nop			; (mov r0, r0)
 c100e64:	e59f3028 	ldr	r3, [pc, #40]	; c100e94 <golden_iic_getByte+0x50>
 c100e68:	e5933000 	ldr	r3, [r3]
 c100e6c:	e2033010 	and	r3, r3, #16
 c100e70:	e3530000 	cmp	r3, #0
 c100e74:	0afffffa 	beq	c100e64 <golden_iic_getByte+0x20>
 c100e78:	e59f3018 	ldr	r3, [pc, #24]	; c100e98 <golden_iic_getByte+0x54>
 c100e7c:	e5933000 	ldr	r3, [r3]
 c100e80:	e20330ff 	and	r3, r3, #255	; 0xff
 c100e84:	e1a00003 	mov	r0, r3
 c100e88:	e28bd000 	add	sp, fp, #0
 c100e8c:	e49db004 	pop	{fp}		; (ldr fp, [sp], #4)
 c100e90:	e12fff1e 	bx	lr
 c100e94:	01d60000 	.word	0x01d60000
 c100e98:	01d6000c 	.word	0x01d6000c

0c100e9c <golden_iic_getByte_stop>:
 c100e9c:	e92d4800 	push	{fp, lr}
 c100ea0:	e28db004 	add	fp, sp, #4
 c100ea4:	e24dd010 	sub	sp, sp, #16
 c100ea8:	e1a03000 	mov	r3, r0
 c100eac:	e54b300d 	strb	r3, [fp, #-13]
 c100eb0:	e59f30a0 	ldr	r3, [pc, #160]	; c100f58 <golden_iic_getByte_stop+0xbc>
 c100eb4:	e59f209c 	ldr	r2, [pc, #156]	; c100f58 <golden_iic_getByte_stop+0xbc>
 c100eb8:	e5922000 	ldr	r2, [r2]
 c100ebc:	e3c21080 	bic	r1, r2, #128	; 0x80
 c100ec0:	e15b20dd 	ldrsb	r2, [fp, #-13]
 c100ec4:	e1a02382 	lsl	r2, r2, #7
 c100ec8:	e1812002 	orr	r2, r1, r2
 c100ecc:	e5832000 	str	r2, [r3]
 c100ed0:	e59f3080 	ldr	r3, [pc, #128]	; c100f58 <golden_iic_getByte_stop+0xbc>
 c100ed4:	e59f207c 	ldr	r2, [pc, #124]	; c100f58 <golden_iic_getByte_stop+0xbc>
 c100ed8:	e5922000 	ldr	r2, [r2]
 c100edc:	e3c22010 	bic	r2, r2, #16
 c100ee0:	e5832000 	str	r2, [r3]
 c100ee4:	e1a00000 	nop			; (mov r0, r0)
 c100ee8:	e59f3068 	ldr	r3, [pc, #104]	; c100f58 <golden_iic_getByte_stop+0xbc>
 c100eec:	e5933000 	ldr	r3, [r3]
 c100ef0:	e2033010 	and	r3, r3, #16
 c100ef4:	e3530000 	cmp	r3, #0
 c100ef8:	0afffffa 	beq	c100ee8 <golden_iic_getByte_stop+0x4c>
 c100efc:	e59f3058 	ldr	r3, [pc, #88]	; c100f5c <golden_iic_getByte_stop+0xc0>
 c100f00:	e5933000 	ldr	r3, [r3]
 c100f04:	e54b3005 	strb	r3, [fp, #-5]
 c100f08:	e59f3050 	ldr	r3, [pc, #80]	; c100f60 <golden_iic_getByte_stop+0xc4>
 c100f0c:	e3a02090 	mov	r2, #144	; 0x90
 c100f10:	e5832000 	str	r2, [r3]
 c100f14:	e59f303c 	ldr	r3, [pc, #60]	; c100f58 <golden_iic_getByte_stop+0xbc>
 c100f18:	e59f2038 	ldr	r2, [pc, #56]	; c100f58 <golden_iic_getByte_stop+0xbc>
 c100f1c:	e5922000 	ldr	r2, [r2]
 c100f20:	e3c22010 	bic	r2, r2, #16
 c100f24:	e5832000 	str	r2, [r3]
 c100f28:	e3a00005 	mov	r0, #5
 c100f2c:	ebfffc33 	bl	c100000 <DelayMs>
 c100f30:	e59f3020 	ldr	r3, [pc, #32]	; c100f58 <golden_iic_getByte_stop+0xbc>
 c100f34:	e59f201c 	ldr	r2, [pc, #28]	; c100f58 <golden_iic_getByte_stop+0xbc>
 c100f38:	e5922000 	ldr	r2, [r2]
 c100f3c:	e3822080 	orr	r2, r2, #128	; 0x80
 c100f40:	e5832000 	str	r2, [r3]
 c100f44:	e55b3005 	ldrb	r3, [fp, #-5]
 c100f48:	e1a00003 	mov	r0, r3
 c100f4c:	e24bd004 	sub	sp, fp, #4
 c100f50:	e8bd4800 	pop	{fp, lr}
 c100f54:	e12fff1e 	bx	lr
 c100f58:	01d60000 	.word	0x01d60000
 c100f5c:	01d6000c 	.word	0x01d6000c
 c100f60:	01d60004 	.word	0x01d60004
