   1              		.cpu arm7tdmi
   2              		.fpu softvfp
   3              		.eabi_attribute 20, 1
   4              		.eabi_attribute 21, 1
   5              		.eabi_attribute 23, 3
   6              		.eabi_attribute 24, 1
   7              		.eabi_attribute 25, 1
   8              		.eabi_attribute 26, 1
   9              		.eabi_attribute 30, 6
  10              		.eabi_attribute 18, 4
  11              		.file	"button.c"
  21              	.Ltext0:
  22              		.file 1 "../button.c"
 1952              		.align	2
 1955              	symbol:
 1956 0000 00000000 		.space	4
 1957              		.text
 1958              		.align	2
 1959              		.global	button_init
 1961              	button_init:
 1962              	.LFB0:
   1:../button.c   **** /*--- ficheros de cabecera ---*/
   2:../button.c   **** #include "44blib.h"
   3:../button.c   **** #include "44b.h"
   4:../button.c   **** #include "def.h"
   5:../button.c   **** /*--- variables globales ---*/
   6:../button.c   **** int symbol = 0;
   7:../button.c   **** /*--- funciones externas ---*/
   8:../button.c   **** //extern void D8Led_Symbol(int value);
   9:../button.c   **** /*--- declaracion de funciones ---*/
  10:../button.c   **** void Eint4567_ISR(void) __attribute__ ((interrupt ("IRQ")));
  11:../button.c   **** void Eint4567_init(void);
  12:../button.c   **** void button_init();
  13:../button.c   **** extern void leds_switch();
  14:../button.c   **** extern void D8Led_symbol(int value);
  15:../button.c   **** 
  16:../button.c   **** void button_init(){
 1963              		.loc 1 16 0
 1964              		.cfi_startproc
 1965              		@ Function supports interworking.
 1966              		@ args = 0, pretend = 0, frame = 0
 1967              		@ frame_needed = 1, uses_anonymous_args = 0
 1968 0000 0DC0A0E1 		mov	ip, sp
 1969              	.LCFI0:
 1970              		.cfi_def_cfa_register 12
 1971 0004 00D82DE9 		stmfd	sp!, {fp, ip, lr, pc}
 1972 0008 04B04CE2 		sub	fp, ip, #4
 1973              		.cfi_offset 14, -8
 1974              		.cfi_offset 13, -12
 1975              		.cfi_offset 11, -16
 1976              	.LCFI1:
 1977              		.cfi_def_cfa 11, 4
  17:../button.c   **** 	rPCONG = rPCONG & ~(0x01<<12);
 1978              		.loc 1 17 0
 1979 000c 60309FE5 		ldr	r3, .L2
 1980 0010 5C209FE5 		ldr	r2, .L2
 1981 0014 002092E5 		ldr	r2, [r2, #0]
 1982 0018 012AC2E3 		bic	r2, r2, #4096
 1983 001c 002083E5 		str	r2, [r3, #0]
  18:../button.c   **** 	rPCONG = rPCONG & ~(0x01<<13);
 1984              		.loc 1 18 0
 1985 0020 4C309FE5 		ldr	r3, .L2
 1986 0024 48209FE5 		ldr	r2, .L2
 1987 0028 002092E5 		ldr	r2, [r2, #0]
 1988 002c 022AC2E3 		bic	r2, r2, #8192
 1989 0030 002083E5 		str	r2, [r3, #0]
  19:../button.c   **** 	rPCONG = rPCONG & ~(0x01<<14);
 1990              		.loc 1 19 0
 1991 0034 38309FE5 		ldr	r3, .L2
 1992 0038 34209FE5 		ldr	r2, .L2
 1993 003c 002092E5 		ldr	r2, [r2, #0]
 1994 0040 0129C2E3 		bic	r2, r2, #16384
 1995 0044 002083E5 		str	r2, [r3, #0]
  20:../button.c   **** 	rPCONG = rPCONG & ~(0x01<<15);
 1996              		.loc 1 20 0
 1997 0048 24309FE5 		ldr	r3, .L2
 1998 004c 20209FE5 		ldr	r2, .L2
 1999 0050 002092E5 		ldr	r2, [r2, #0]
 2000 0054 0229C2E3 		bic	r2, r2, #32768
 2001 0058 002083E5 		str	r2, [r3, #0]
  21:../button.c   **** 
  22:../button.c   **** 	rPUPG = 0;
 2002              		.loc 1 22 0
 2003 005c 14309FE5 		ldr	r3, .L2+4
 2004 0060 0020A0E3 		mov	r2, #0
 2005 0064 002083E5 		str	r2, [r3, #0]
  23:../button.c   **** }
 2006              		.loc 1 23 0
 2007 0068 0CD04BE2 		sub	sp, fp, #12
 2008 006c 00689DE8 		ldmfd	sp, {fp, sp, lr}
 2009 0070 1EFF2FE1 		bx	lr
 2010              	.L3:
 2011              		.align	2
 2012              	.L2:
 2013 0074 4000D201 		.word	30539840
 2014 0078 4800D201 		.word	30539848
 2015              		.cfi_endproc
 2016              	.LFE0:
 2018              		.align	2
 2019              		.global	Eint4567_init
 2021              	Eint4567_init:
 2022              	.LFB1:
  24:../button.c   **** 
  25:../button.c   **** /*--- codigo de funciones ---*/
  26:../button.c   **** void Eint4567_init(void)
  27:../button.c   **** {
 2023              		.loc 1 27 0
 2024              		.cfi_startproc
 2025              		@ Function supports interworking.
 2026              		@ args = 0, pretend = 0, frame = 0
 2027              		@ frame_needed = 1, uses_anonymous_args = 0
 2028 007c 0DC0A0E1 		mov	ip, sp
 2029              	.LCFI2:
 2030              		.cfi_def_cfa_register 12
 2031 0080 00D82DE9 		stmfd	sp!, {fp, ip, lr, pc}
 2032 0084 04B04CE2 		sub	fp, ip, #4
 2033              		.cfi_offset 14, -8
 2034              		.cfi_offset 13, -12
 2035              		.cfi_offset 11, -16
 2036              	.LCFI3:
 2037              		.cfi_def_cfa 11, 4
  28:../button.c   **** /* Configuracion del controlador de interrupciones */
  29:../button.c   **** 	// Borra EXTINTPND escribiendo 1s en el propio registro
  30:../button.c   **** 	rEXTINTPND = 0Xf;
 2038              		.loc 1 30 0
 2039 0088 88309FE5 		ldr	r3, .L5
 2040 008c 0F20A0E3 		mov	r2, #15
 2041 0090 002083E5 		str	r2, [r3, #0]
  31:../button.c   **** 	// Borra INTPND escribiendo 1s en I_ISPC
  32:../button.c   **** 	rI_ISPC = 0x3ffffff;
 2042              		.loc 1 32 0
 2043 0094 80309FE5 		ldr	r3, .L5+4
 2044 0098 3F23E0E3 		mvn	r2, #-67108864
 2045 009c 002083E5 		str	r2, [r3, #0]
  33:../button.c   **** 	// Configura las lineas como de tipo IRQ mediante INTMOD
  34:../button.c   **** 	rINTMOD = 0x0;
 2046              		.loc 1 34 0
 2047 00a0 78309FE5 		ldr	r3, .L5+8
 2048 00a4 0020A0E3 		mov	r2, #0
 2049 00a8 002083E5 		str	r2, [r3, #0]
  35:../button.c   **** 	// Habilita int. vectorizadas y la linea IRQ (FIQ no) mediante INTCON
  36:../button.c   **** 	rINTCON = 0x1;
 2050              		.loc 1 36 0
 2051 00ac 1E36A0E3 		mov	r3, #31457280
 2052 00b0 0120A0E3 		mov	r2, #1
 2053 00b4 002083E5 		str	r2, [r3, #0]
  37:../button.c   **** 	// Enmascara todas las lineas excepto Eint4567 y el bit global (INTMSK)
  38:../button.c   **** 	rINTMSK = ~(BIT_EINT4567 | BIT_GLOBAL);
 2054              		.loc 1 38 0
 2055 00b8 64309FE5 		ldr	r3, .L5+12
 2056 00bc 4226E0E3 		mvn	r2, #69206016
 2057 00c0 002083E5 		str	r2, [r3, #0]
  39:../button.c   **** 	// Establecer la rutina de servicio para Eint4567
  40:../button.c   **** 	pISR_EINT4567 = (unsigned)Eint4567_ISR;
 2058              		.loc 1 40 0
 2059 00c4 5C309FE5 		ldr	r3, .L5+16
 2060 00c8 5C209FE5 		ldr	r2, .L5+20
 2061 00cc 002083E5 		str	r2, [r3, #0]
  41:../button.c   **** /* Configuracion del puerto G */
  42:../button.c   **** 	// Establece la funcion de los pines (EINT7-EINT0)
  43:../button.c   **** 	rPCONG = 0xff3f;
 2062              		.loc 1 43 0
 2063 00d0 58309FE5 		ldr	r3, .L5+24
 2064 00d4 58209FE5 		ldr	r2, .L5+28
 2065 00d8 002083E5 		str	r2, [r3, #0]
  44:../button.c   **** 	//Habilita las resistencias de pull-up
  45:../button.c   **** 	rPUPG = 0x0;
 2066              		.loc 1 45 0
 2067 00dc 54309FE5 		ldr	r3, .L5+32
 2068 00e0 0020A0E3 		mov	r2, #0
 2069 00e4 002083E5 		str	r2, [r3, #0]
  46:../button.c   **** 	// Configura las lineas de int. como de flanco de bajada mediante EXTINT
  47:../button.c   **** 	rEXTINT = 0x22220000;
 2070              		.loc 1 47 0
 2071 00e8 4C309FE5 		ldr	r3, .L5+36
 2072 00ec 4C209FE5 		ldr	r2, .L5+40
 2073 00f0 002083E5 		str	r2, [r3, #0]
  48:../button.c   **** /* Por precaucion, se vuelven a borrar los bits de INTPND y EXTINTPND */
  49:../button.c   **** 	rEXTINTPND = 0xf;
 2074              		.loc 1 49 0
 2075 00f4 1C309FE5 		ldr	r3, .L5
 2076 00f8 0F20A0E3 		mov	r2, #15
 2077 00fc 002083E5 		str	r2, [r3, #0]
  50:../button.c   **** 	rI_ISPC = 0x3ffffff;
 2078              		.loc 1 50 0
 2079 0100 14309FE5 		ldr	r3, .L5+4
 2080 0104 3F23E0E3 		mvn	r2, #-67108864
 2081 0108 002083E5 		str	r2, [r3, #0]
  51:../button.c   **** }
 2082              		.loc 1 51 0
 2083 010c 0CD04BE2 		sub	sp, fp, #12
 2084 0110 00689DE8 		ldmfd	sp, {fp, sp, lr}
 2085 0114 1EFF2FE1 		bx	lr
 2086              	.L6:
 2087              		.align	2
 2088              	.L5:
 2089 0118 5400D201 		.word	30539860
 2090 011c 2400E001 		.word	31457316
 2091 0120 0800E001 		.word	31457288
 2092 0124 0C00E001 		.word	31457292
 2093 0128 74FF7F0C 		.word	209715060
 2094 012c 00000000 		.word	Eint4567_ISR
 2095 0130 4000D201 		.word	30539840
 2096 0134 3FFF0000 		.word	65343
 2097 0138 4800D201 		.word	30539848
 2098 013c 5000D201 		.word	30539856
 2099 0140 00002222 		.word	572653568
 2100              		.cfi_endproc
 2101              	.LFE1:
 2103              		.align	2
 2104              		.global	Eint4567_ISR
 2106              	Eint4567_ISR:
 2107              	.LFB2:
  52:../button.c   **** 
  53:../button.c   **** /*COMENTAR PARA LA PARTE DEL 8-SEGMENTOS
  54:../button.c   **** DESCOMENTAR PARA LA PRIMERA PARTE CON INTERRUPCIONES
  55:../button.c   **** */
  56:../button.c   **** void Eint4567_ISR(void)
  57:../button.c   **** {
 2108              		.loc 1 57 0
 2109              		.cfi_startproc
 2110              		@ Interrupt Service Routine.
 2111              		@ args = 0, pretend = 0, frame = 8
 2112              		@ frame_needed = 1, uses_anonymous_args = 0
 2113 0144 04C02DE5 		str	ip, [sp, #-4]!
 2114 0148 0DC0A0E1 		mov	ip, sp
 2115              	.LCFI4:
 2116              		.cfi_def_cfa_register 12
 2117 014c 0FD82DE9 		stmfd	sp!, {r0, r1, r2, r3, fp, ip, lr, pc}
 2118 0150 04B04CE2 		sub	fp, ip, #4
 2119              		.cfi_offset 14, -8
 2120              		.cfi_offset 13, -12
 2121              		.cfi_offset 11, -16
 2122              		.cfi_offset 3, -20
 2123              		.cfi_offset 2, -24
 2124              		.cfi_offset 1, -28
 2125              		.cfi_offset 0, -32
 2126              	.LCFI5:
 2127              		.cfi_def_cfa 11, 4
 2128 0154 08D04DE2 		sub	sp, sp, #8
  58:../button.c   **** 	int aux2 = rPDATG & 0x00000080; //1100 0000
 2129              		.loc 1 58 0
 2130 0158 A0309FE5 		ldr	r3, .L12
 2131 015c 003093E5 		ldr	r3, [r3, #0]
 2132 0160 803003E2 		and	r3, r3, #128
 2133 0164 20300BE5 		str	r3, [fp, #-32]
  59:../button.c   **** 	int aux3 = rPDATG & 0x00000040; //1100 0000
 2134              		.loc 1 59 0
 2135 0168 90309FE5 		ldr	r3, .L12
 2136 016c 003093E5 		ldr	r3, [r3, #0]
 2137 0170 403003E2 		and	r3, r3, #64
 2138 0174 24300BE5 		str	r3, [fp, #-36]
  60:../button.c   **** 	if ( aux2 == 0 || aux3 == 0) { // si alguno está pulsado
 2139              		.loc 1 60 0
 2140 0178 20301BE5 		ldr	r3, [fp, #-32]
 2141 017c 000053E3 		cmp	r3, #0
 2142 0180 0B00000A 		beq	.L10
 2143              		.loc 1 60 0 is_stmt 0 discriminator 1
 2144 0184 24301BE5 		ldr	r3, [fp, #-36]
 2145 0188 000053E3 		cmp	r3, #0
 2146 018c 0E00001A 		bne	.L9
  61:../button.c   **** 		while(aux2 == 0 || aux3 == 0){
 2147              		.loc 1 61 0 is_stmt 1
 2148 0190 070000EA 		b	.L10
 2149              	.L11:
  62:../button.c   **** 			aux2 = rPDATG & 0x00000080; //1100 0000
 2150              		.loc 1 62 0
 2151 0194 64309FE5 		ldr	r3, .L12
 2152 0198 003093E5 		ldr	r3, [r3, #0]
 2153 019c 803003E2 		and	r3, r3, #128
 2154 01a0 20300BE5 		str	r3, [fp, #-32]
  63:../button.c   **** 			aux3 = rPDATG & 0x00000040; //1100 0000
 2155              		.loc 1 63 0
 2156 01a4 54309FE5 		ldr	r3, .L12
 2157 01a8 003093E5 		ldr	r3, [r3, #0]
 2158 01ac 403003E2 		and	r3, r3, #64
 2159 01b0 24300BE5 		str	r3, [fp, #-36]
 2160              	.L10:
  61:../button.c   **** 		while(aux2 == 0 || aux3 == 0){
 2161              		.loc 1 61 0 discriminator 1
 2162 01b4 20301BE5 		ldr	r3, [fp, #-32]
 2163 01b8 000053E3 		cmp	r3, #0
 2164 01bc F4FFFF0A 		beq	.L11
  61:../button.c   **** 		while(aux2 == 0 || aux3 == 0){
 2165              		.loc 1 61 0 is_stmt 0 discriminator 2
 2166 01c0 24301BE5 		ldr	r3, [fp, #-36]
 2167 01c4 000053E3 		cmp	r3, #0
 2168 01c8 F1FFFF0A 		beq	.L11
 2169              	.L9:
  64:../button.c   **** 		}
  65:../button.c   **** 	}
  66:../button.c   **** 	//Conmutamos LEDs
  67:../button.c   **** 	leds_switch();
 2170              		.loc 1 67 0 is_stmt 1
 2171 01cc FEFFFFEB 		bl	leds_switch
  68:../button.c   **** 	//Delay para eliminar rebotes
  69:../button.c   **** 	DelayMs(100);
 2172              		.loc 1 69 0
 2173 01d0 6400A0E3 		mov	r0, #100
 2174 01d4 FEFFFFEB 		bl	DelayMs
  70:../button.c   **** 	/*Atendemos interrupciones*/
  71:../button.c   **** 	//Borramos EXTINTPND ambas líneas EINT7 y EINT6
  72:../button.c   **** 	rEXTINTPND = 0xC;
 2175              		.loc 1 72 0
 2176 01d8 24309FE5 		ldr	r3, .L12+4
 2177 01dc 0C20A0E3 		mov	r2, #12
 2178 01e0 002083E5 		str	r2, [r3, #0]
  73:../button.c   **** 	//Borramos INTPND usando ISPC
  74:../button.c   **** 	rI_ISPC = 0x3ffffff;
 2179              		.loc 1 74 0
 2180 01e4 1C309FE5 		ldr	r3, .L12+8
 2181 01e8 3F23E0E3 		mvn	r2, #-67108864
 2182 01ec 002083E5 		str	r2, [r3, #0]
  75:../button.c   **** }
 2183              		.loc 1 75 0
 2184 01f0 1CD04BE2 		sub	sp, fp, #28
 2185 01f4 0F689DE8 		ldmfd	sp, {r0, r1, r2, r3, fp, sp, lr}
 2186 01f8 04C09DE4 		ldmfd	sp!, {ip}
 2187 01fc 04F05EE2 		subs	pc, lr, #4
 2188              	.L13:
 2189              		.align	2
 2190              	.L12:
 2191 0200 4400D201 		.word	30539844
 2192 0204 5400D201 		.word	30539860
 2193 0208 2400E001 		.word	31457316
 2194              		.cfi_endproc
 2195              	.LFE2:
 2197              	.Letext0: